
C:/Users/AndrewLaptop/Documents/GitHub/BrickBreaker243/main.axf:     file format elf32-littlearm


Disassembly of section .text:

00000000 <__cs3_interrupt_vector>:
       0:	18 f0 9f e5 18 f0 9f e5 18 f0 9f e5 18 f0 9f e5     ................
      10:	18 f0 9f e5 18 f0 9f e5 18 f0 9f e5 18 f0 9f e5     ................
      20:	40 00 00 00 5c 32 00 00 60 32 00 00 64 32 00 00     @...\2..`2..d2..
      30:	68 32 00 00 58 32 00 00 6c 32 00 00 70 32 00 00     h2..X2..l2..p2..

00000040 <__cs3_reset>:
      40:	ea000026 	b	e0 <__cs3_start_asm_sim>

00000044 <__cs3_start_c>:
      44:	e59f608c 	ldr	r6, [pc, #140]	; d8 <__cs3_start_c+0x94>
      48:	e3560000 	cmp	r6, #0
      4c:	e92d4080 	push	{r7, lr}
      50:	e2466001 	sub	r6, r6, #1
      54:	0a00001e 	beq	d4 <__cs3_start_c+0x90>
      58:	e59f507c 	ldr	r5, [pc, #124]	; dc <__cs3_start_c+0x98>
      5c:	e3a00000 	mov	r0, #0
      60:	e3a01000 	mov	r1, #0
      64:	e515200c 	ldr	r2, [r5, #-12]
      68:	e515e010 	ldr	lr, [r5, #-16]
      6c:	e5154008 	ldr	r4, [r5, #-8]
      70:	e15e0002 	cmp	lr, r2
      74:	00822004 	addeq	r2, r2, r4
      78:	0a000009 	beq	a4 <__cs3_start_c+0x60>
      7c:	e3540000 	cmp	r4, #0
      80:	0a000007 	beq	a4 <__cs3_start_c+0x60>
      84:	e1a07002 	mov	r7, r2
      88:	e1a0c002 	mov	r12, r2
      8c:	e8be000c 	ldm	lr!, {r2, r3}
      90:	e8ac000c 	stmia	r12!, {r2, r3}
      94:	e067300c 	rsb	r3, r7, r12
      98:	e1540003 	cmp	r4, r3
      9c:	e1a0200c 	mov	r2, r12
      a0:	1afffff9 	bne	8c <__cs3_start_c+0x48>
      a4:	e515e004 	ldr	lr, [r5, #-4]
      a8:	e35e0000 	cmp	lr, #0
      ac:	11a03002 	movne	r3, r2
      b0:	0a000003 	beq	c4 <__cs3_start_c+0x80>
      b4:	e8a30003 	stmia	r3!, {r0, r1}
      b8:	e062c003 	rsb	r12, r2, r3
      bc:	e15e000c 	cmp	lr, r12
      c0:	1afffffb 	bne	b4 <__cs3_start_c+0x70>
      c4:	e2466001 	sub	r6, r6, #1
      c8:	e3760001 	cmn	r6, #1
      cc:	e2855014 	add	r5, r5, #20
      d0:	1affffe3 	bne	64 <__cs3_start_c+0x20>
      d4:	eb000c46 	bl	31f4 <__cs3_premain>
      d8:	00000001 	.word	0x00000001
      dc:	000033a0 	.word	0x000033a0

000000e0 <__cs3_start_asm_sim>:
      e0:	e28f103c 	add	r1, pc, #60	; 0x3c
      e4:	e3a00016 	mov	r0, #22
      e8:	ef123456 	svc	0x00123456
      ec:	e3500000 	cmp	r0, #0
      f0:	ba000008 	blt	118 <__cs3_start_asm_sim+0x38>
      f4:	e59f2028 	ldr	r2, [pc, #40]	; 124 <__cs3_heap_start_ptr>
      f8:	e59fd01c 	ldr	sp, [pc, #28]	; 11c <__cs3_start_asm_sim+0x3c>
      fc:	e5920008 	ldr	r0, [r2, #8]
     100:	e3500000 	cmp	r0, #0
     104:	11a0d000 	movne	sp, r0
     108:	e59f1010 	ldr	r1, [pc, #16]	; 120 <__cs3_start_asm_sim+0x40>
     10c:	e5920004 	ldr	r0, [r2, #4]
     110:	e3500000 	cmp	r0, #0
     114:	15810000 	strne	r0, [r1]
     118:	eaffffc9 	b	44 <__cs3_start_c>
     11c:	3ffffff8 	.word	0x3ffffff8
     120:	000037d8 	.word	0x000037d8

00000124 <__cs3_heap_start_ptr>:
     124:	0004e800 	.word	0x0004e800

00000128 <_start>:
     128:	e51fd000 	ldr	sp, [pc, #-0]	; 130 <_start+0x8>
     12c:	eaffffc4 	b	44 <__cs3_start_c>
     130:	3ffffff8 	.word	0x3ffffff8

00000134 <deregister_tm_clones>:
     134:	e92d4008 	push	{r3, lr}
     138:	e59f002c 	ldr	r0, [pc, #44]	; 16c <deregister_tm_clones+0x38>
     13c:	e59f302c 	ldr	r3, [pc, #44]	; 170 <deregister_tm_clones+0x3c>
     140:	e0603003 	rsb	r3, r0, r3
     144:	e3530006 	cmp	r3, #6
     148:	8a000001 	bhi	154 <deregister_tm_clones+0x20>
     14c:	e8bd4008 	pop	{r3, lr}
     150:	e12fff1e 	bx	lr
     154:	e59f3018 	ldr	r3, [pc, #24]	; 174 <deregister_tm_clones+0x40>
     158:	e3530000 	cmp	r3, #0
     15c:	0afffffa 	beq	14c <deregister_tm_clones+0x18>
     160:	e1a0e00f 	mov	lr, pc
     164:	e12fff13 	bx	r3
     168:	eafffff7 	b	14c <deregister_tm_clones+0x18>
     16c:	000037e0 	.word	0x000037e0
     170:	000037e3 	.word	0x000037e3
     174:	00000000 	.word	0x00000000

00000178 <register_tm_clones>:
     178:	e92d4008 	push	{r3, lr}
     17c:	e59f0034 	ldr	r0, [pc, #52]	; 1b8 <register_tm_clones+0x40>
     180:	e59f3034 	ldr	r3, [pc, #52]	; 1bc <register_tm_clones+0x44>
     184:	e0603003 	rsb	r3, r0, r3
     188:	e1a03143 	asr	r3, r3, #2
     18c:	e0833fa3 	add	r3, r3, r3, lsr #31
     190:	e1b010c3 	asrs	r1, r3, #1
     194:	1a000001 	bne	1a0 <register_tm_clones+0x28>
     198:	e8bd4008 	pop	{r3, lr}
     19c:	e12fff1e 	bx	lr
     1a0:	e59f2018 	ldr	r2, [pc, #24]	; 1c0 <register_tm_clones+0x48>
     1a4:	e3520000 	cmp	r2, #0
     1a8:	0afffffa 	beq	198 <register_tm_clones+0x20>
     1ac:	e1a0e00f 	mov	lr, pc
     1b0:	e12fff12 	bx	r2
     1b4:	eafffff7 	b	198 <register_tm_clones+0x20>
     1b8:	000037e0 	.word	0x000037e0
     1bc:	000037e0 	.word	0x000037e0
     1c0:	00000000 	.word	0x00000000

000001c4 <__do_global_dtors_aux>:
     1c4:	e92d4010 	push	{r4, lr}
     1c8:	e59f402c 	ldr	r4, [pc, #44]	; 1fc <__do_global_dtors_aux+0x38>
     1cc:	e5d43000 	ldrb	r3, [r4]
     1d0:	e3530000 	cmp	r3, #0
     1d4:	1a000006 	bne	1f4 <__do_global_dtors_aux+0x30>
     1d8:	ebffffd5 	bl	134 <deregister_tm_clones>
     1dc:	e59f301c 	ldr	r3, [pc, #28]	; 200 <__do_global_dtors_aux+0x3c>
     1e0:	e3530000 	cmp	r3, #0
     1e4:	159f0018 	ldrne	r0, [pc, #24]	; 204 <__do_global_dtors_aux+0x40>
     1e8:	1320f000 	nopne	{0}
     1ec:	e3a03001 	mov	r3, #1
     1f0:	e5c43000 	strb	r3, [r4]
     1f4:	e8bd4010 	pop	{r4, lr}
     1f8:	e12fff1e 	bx	lr
     1fc:	000037e0 	.word	0x000037e0
     200:	00000000 	.word	0x00000000
     204:	000032fc 	.word	0x000032fc

00000208 <frame_dummy>:
     208:	e92d4008 	push	{r3, lr}
     20c:	e59f3034 	ldr	r3, [pc, #52]	; 248 <frame_dummy+0x40>
     210:	e3530000 	cmp	r3, #0
     214:	159f0030 	ldrne	r0, [pc, #48]	; 24c <frame_dummy+0x44>
     218:	159f1030 	ldrne	r1, [pc, #48]	; 250 <frame_dummy+0x48>
     21c:	1320f000 	nopne	{0}
     220:	e59f002c 	ldr	r0, [pc, #44]	; 254 <frame_dummy+0x4c>
     224:	e5903000 	ldr	r3, [r0]
     228:	e3530000 	cmp	r3, #0
     22c:	0a000003 	beq	240 <frame_dummy+0x38>
     230:	e59f3020 	ldr	r3, [pc, #32]	; 258 <frame_dummy+0x50>
     234:	e3530000 	cmp	r3, #0
     238:	11a0e00f 	movne	lr, pc
     23c:	112fff13 	bxne	r3
     240:	e8bd4008 	pop	{r3, lr}
     244:	eaffffcb 	b	178 <register_tm_clones>
     248:	00000000 	.word	0x00000000
     24c:	000032fc 	.word	0x000032fc
     250:	000037e4 	.word	0x000037e4
     254:	000033a0 	.word	0x000033a0
     258:	00000000 	.word	0x00000000

0000025c <abs>:
        return -1*x;
    else
        return x;
}

// code for subroutines (not shown)
     25c:	e3500000 	cmp	r0, #0
     260:	b2600000 	rsblt	r0, r0, #0
     264:	e12fff1e 	bx	lr

00000268 <swap>:

// swap n0 and n1
void swap(int *n0, int *n1){
    int temp = *n1;
    *n1 = *n0;
    *n0 = temp;
     268:	e5913000 	ldr	r3, [r1]
}
     26c:	e5902000 	ldr	r2, [r0]
     270:	e5812000 	str	r2, [r1]

     274:	e5803000 	str	r3, [r0]
     278:	e12fff1e 	bx	lr

0000027c <plot_pixel>:

// plot the pixel in the buffer
void plot_pixel(int x, int y, short int pixel_colour){
    *(short int *)(pixel_buffer_start + (y << 10) + (x << 1)) = pixel_colour;
}

     27c:	e30337fc 	movw	r3, #14332	; 0x37fc
     280:	e3403000 	movt	r3, #0
     284:	e5933000 	ldr	r3, [r3]
     288:	e1a00080 	lsl	r0, r0, #1
     28c:	e0831501 	add	r1, r3, r1, lsl #10
     290:	e18120b0 	strh	r2, [r1, r0]
     294:	e12fff1e 	bx	lr

00000298 <drawBall>:
}

// Draws the ball
void drawBall(int left_x, int top_y, int size) {
    int x,y;
    for (x = 0; x < size; x++) {
     298:	e92d4ff0 	push	{r4, r5, r6, r7, r8, r9, r10, r11, lr}
     29c:	e24dd014 	sub	sp, sp, #20
     2a0:	e58d000c 	str	r0, [sp, #12]
     2a4:	e58d1004 	str	r1, [sp, #4]
        for (y = 0; y < size; y++) {
            boardStatus[y][x] = 3;
     2a8:	e3520000 	cmp	r2, #0
     2ac:	e58d2008 	str	r2, [sp, #8]
     2b0:	da000018 	ble	318 <drawBall+0x80>
     2b4:	e59f6064 	ldr	r6, [pc, #100]	; 320 <drawBall+0x88>
     2b8:	e3a0b000 	mov	r11, #0
}

// Draws the ball
void drawBall(int left_x, int top_y, int size) {
    int x,y;
    for (x = 0; x < size; x++) {
     2bc:	e0829001 	add	r9, r2, r1
        for (y = 0; y < size; y++) {
            boardStatus[y][x] = 3;
            plot_pixel(left_x + x, top_y + y, BALL_COLOUR);
        }
     2c0:	e3a0a003 	mov	r10, #3
    }
     2c4:	e3e08000 	mvn	r8, #0
     2c8:	ea00000d 	b	304 <drawBall+0x6c>
    int x,y;
    for (x = 0; x < size; x++) {
        for (y = 0; y < size; y++) {
            boardStatus[y][x] = 3;
            plot_pixel(left_x + x, top_y + y, BALL_COLOUR);
        }
     2cc:	e786a005 	str	r10, [r6, r5]
    }
     2d0:	e1a00007 	mov	r0, r7
     2d4:	e1a01004 	mov	r1, r4
     2d8:	e1a02008 	mov	r2, r8
     2dc:	ebffffe6 	bl	27c <plot_pixel>
     2e0:	e2855c05 	add	r5, r5, #1280	; 0x500
     2e4:	e2844001 	add	r4, r4, #1
void drawBall(int left_x, int top_y, int size) {
    int x,y;
    for (x = 0; x < size; x++) {
        for (y = 0; y < size; y++) {
            boardStatus[y][x] = 3;
            plot_pixel(left_x + x, top_y + y, BALL_COLOUR);
     2e8:	e1540009 	cmp	r4, r9
     2ec:	1afffff6 	bne	2cc <drawBall+0x34>
// Draws the ball
void drawBall(int left_x, int top_y, int size) {
    int x,y;
    for (x = 0; x < size; x++) {
        for (y = 0; y < size; y++) {
            boardStatus[y][x] = 3;
     2f0:	e28bb001 	add	r11, r11, #1
     2f4:	e2866004 	add	r6, r6, #4
     2f8:	e59d2008 	ldr	r2, [sp, #8]
     2fc:	e15b0002 	cmp	r11, r2
     300:	0a000004 	beq	318 <drawBall+0x80>
     304:	e59d4004 	ldr	r4, [sp, #4]
}

// Draws the ball
void drawBall(int left_x, int top_y, int size) {
    int x,y;
    for (x = 0; x < size; x++) {
     308:	e3a05000 	mov	r5, #0
     30c:	e59d300c 	ldr	r3, [sp, #12]
     310:	e08b7003 	add	r7, r11, r3
     314:	eaffffec 	b	2cc <drawBall+0x34>
            plot_pixel(left_x + x, top_y + y, BALL_COLOUR);
        }
    }
}

// plot the pixel in the buffer
     318:	e28dd014 	add	sp, sp, #20
     31c:	e8bd8ff0 	pop	{r4, r5, r6, r7, r8, r9, r10, r11, pc}
     320:	00003800 	.word	0x00003800

00000324 <plot_boxes>:
}

// plots a x_size by y_size rectangle
void plot_boxes(int xx, int yy, int x_size, int y_size, short int box_colour){
    int x,y;

     324:	e92d4ff0 	push	{r4, r5, r6, r7, r8, r9, r10, r11, lr}
     328:	e24dd01c 	sub	sp, sp, #28
     32c:	e58d1014 	str	r1, [sp, #20]
     330:	e1a0a003 	mov	r10, r3
     334:	e1dd34f0 	ldrsh	r3, [sp, #64]	; 0x40
     338:	e58d300c 	str	r3, [sp, #12]
    for(x=0 ; x < x_size ; x++){
        for(y=0 ; y < y_size ; y++){
            boardStatus[y][x] = 1;
     33c:	e3520000 	cmp	r2, #0
     340:	e58d2010 	str	r2, [sp, #16]
     344:	da000031 	ble	410 <plot_boxes+0xec>
     348:	e3a07000 	mov	r7, #0
            if((x<2 || x>=x_size-2 || y<2 || y>=y_size-2)){
                plot_pixel(xx + x,yy + y,BOX_BORDER_COLOUR);
     34c:	e3a09001 	mov	r9, #1
            } else {
                plot_pixel(xx + x,yy + y,box_colour);
     350:	e309be84 	movw	r11, #40580	; 0x9e84
     354:	e34fbfff 	movt	r11, #65535	; 0xffff
     358:	e1a0300b 	mov	r3, r11
     35c:	e1a0b000 	mov	r11, r0
     360:	e1a08003 	mov	r8, r3
     364:	ea00001d 	b	3e0 <plot_boxes+0xbc>

    for(x=0 ; x < x_size ; x++){
        for(y=0 ; y < y_size ; y++){
            boardStatus[y][x] = 1;
            if((x<2 || x>=x_size-2 || y<2 || y>=y_size-2)){
                plot_pixel(xx + x,yy + y,BOX_BORDER_COLOUR);
     368:	e5869000 	str	r9, [r6]
            } else {
     36c:	e3570001 	cmp	r7, #1
     370:	da000007 	ble	394 <plot_boxes+0x70>
     374:	e59d3004 	ldr	r3, [sp, #4]
     378:	e1530007 	cmp	r3, r7
     37c:	da000004 	ble	394 <plot_boxes+0x70>
     380:	e3540001 	cmp	r4, #1
     384:	da000002 	ble	394 <plot_boxes+0x70>
     388:	e59d3008 	ldr	r3, [sp, #8]
     38c:	e1530004 	cmp	r3, r4
     390:	ca000004 	bgt	3a8 <plot_boxes+0x84>
                plot_pixel(xx + x,yy + y,box_colour);
     394:	e1a0000b 	mov	r0, r11
     398:	e1a01005 	mov	r1, r5
     39c:	e1a02008 	mov	r2, r8
     3a0:	ebffffb5 	bl	27c <plot_pixel>
     3a4:	ea000003 	b	3b8 <plot_boxes+0x94>
            }
        }
     3a8:	e1a0000b 	mov	r0, r11
     3ac:	e1a01005 	mov	r1, r5
     3b0:	e59d200c 	ldr	r2, [sp, #12]
     3b4:	ebffffb0 	bl	27c <plot_pixel>
    int x,y;

    for(x=0 ; x < x_size ; x++){
        for(y=0 ; y < y_size ; y++){
            boardStatus[y][x] = 1;
            if((x<2 || x>=x_size-2 || y<2 || y>=y_size-2)){
     3b8:	e2844001 	add	r4, r4, #1
     3bc:	e2866c05 	add	r6, r6, #1280	; 0x500
     3c0:	e2855001 	add	r5, r5, #1
     3c4:	e154000a 	cmp	r4, r10
     3c8:	1affffe6 	bne	368 <plot_boxes+0x44>
void plot_boxes(int xx, int yy, int x_size, int y_size, short int box_colour){
    int x,y;

    for(x=0 ; x < x_size ; x++){
        for(y=0 ; y < y_size ; y++){
            boardStatus[y][x] = 1;
     3cc:	e2877001 	add	r7, r7, #1
     3d0:	e28bb001 	add	r11, r11, #1
     3d4:	e59d3010 	ldr	r3, [sp, #16]
     3d8:	e1570003 	cmp	r7, r3
     3dc:	0a00000b 	beq	410 <plot_boxes+0xec>
            if((x<2 || x>=x_size-2 || y<2 || y>=y_size-2)){
     3e0:	e35a0000 	cmp	r10, #0
     3e4:	dafffff8 	ble	3cc <plot_boxes+0xa8>
}

// plots a x_size by y_size rectangle
void plot_boxes(int xx, int yy, int x_size, int y_size, short int box_colour){
    int x,y;

     3e8:	e59f3028 	ldr	r3, [pc, #40]	; 418 <plot_boxes+0xf4>
     3ec:	e0836107 	add	r6, r3, r7, lsl #2
     3f0:	e59d5014 	ldr	r5, [sp, #20]
     3f4:	e3a04000 	mov	r4, #0
    for(x=0 ; x < x_size ; x++){
        for(y=0 ; y < y_size ; y++){
            boardStatus[y][x] = 1;
            if((x<2 || x>=x_size-2 || y<2 || y>=y_size-2)){
                plot_pixel(xx + x,yy + y,BOX_BORDER_COLOUR);
            } else {
     3f8:	e59d3010 	ldr	r3, [sp, #16]
     3fc:	e2433002 	sub	r3, r3, #2
     400:	e58d3004 	str	r3, [sp, #4]
     404:	e24a3002 	sub	r3, r10, #2
     408:	e58d3008 	str	r3, [sp, #8]
     40c:	eaffffd5 	b	368 <plot_boxes+0x44>
            }
        }
    }
}

// Draws the ball
     410:	e28dd01c 	add	sp, sp, #28
     414:	e8bd8ff0 	pop	{r4, r5, r6, r7, r8, r9, r10, r11, pc}
     418:	00003800 	.word	0x00003800

0000041c <clear_screen>:


// write all addresses in buffer to draw the background picture
void clear_screen(){
    int x,y;
    for(x=0 ; x<320 ; x++){
     41c:	e92d4ff8 	push	{r3, r4, r5, r6, r7, r8, r9, r10, r11, lr}
     420:	e59f7098 	ldr	r7, [pc, #152]	; 4c0 <clear_screen+0xa4>
        for(y=0 ; y<240 ; y++){
            if((x<MIN_X || x>=MAX_X || y<MIN_Y || y>=MAX_Y)){
     424:	e3a06000 	mov	r6, #0
                boardStatus[y][x] = 2;
                if(MIN_Y / 2 + TITLE_HEIGHT / 2 > y){
                    plot_pixel(x,y,SCORELIFE[1][0]);
     428:	e3a0a002 	mov	r10, #2
                } else {
                    plot_pixel(x,y,WALLS_COLOUR);
                }
            } else {
     42c:	e308b430 	movw	r11, #33840	; 0x8430
     430:	e34fbfff 	movt	r11, #65535	; 0xffff
            if((x<MIN_X || x>=MAX_X || y<MIN_Y || y>=MAX_Y)){
                boardStatus[y][x] = 2;
                if(MIN_Y / 2 + TITLE_HEIGHT / 2 > y){
                    plot_pixel(x,y,SCORELIFE[1][0]);
                } else {
                    plot_pixel(x,y,WALLS_COLOUR);
     434:	e3009e10 	movw	r9, #3600	; 0xe10
     438:	e3409000 	movt	r9, #0
     43c:	ea00001b 	b	4b0 <clear_screen+0x94>
    int x,y;
    for(x=0 ; x<320 ; x++){
        for(y=0 ; y<240 ; y++){
            if((x<MIN_X || x>=MAX_X || y<MIN_Y || y>=MAX_Y)){
                boardStatus[y][x] = 2;
                if(MIN_Y / 2 + TITLE_HEIGHT / 2 > y){
     440:	e3580e12 	cmp	r8, #288	; 0x120
     444:	8a000002 	bhi	454 <clear_screen+0x38>
     448:	e2443014 	sub	r3, r4, #20
     44c:	e35300d5 	cmp	r3, #213	; 0xd5
     450:	9a000008 	bls	478 <clear_screen+0x5c>
                    plot_pixel(x,y,SCORELIFE[1][0]);
     454:	e787a005 	str	r10, [r7, r5]
                } else {
     458:	e354000f 	cmp	r4, #15
                    plot_pixel(x,y,WALLS_COLOUR);
     45c:	e1a00006 	mov	r0, r6
     460:	e1a01004 	mov	r1, r4
     464:	d300314a 	movwle	r3, #330	; 0x14a
     468:	d19920f3 	ldrshle	r2, [r9, r3]
                }
            } else {
     46c:	c1a0200b 	movgt	r2, r11
     470:	ebffff81 	bl	27c <plot_pixel>
     474:	ea000005 	b	490 <clear_screen+0x74>
                boardStatus[y][x] = 0;
                plot_pixel(x,y,0);
            }
     478:	e3a03000 	mov	r3, #0
     47c:	e7873005 	str	r3, [r7, r5]
        }
     480:	e1a00006 	mov	r0, r6
     484:	e1a01004 	mov	r1, r4
     488:	e1a02003 	mov	r2, r3
     48c:	ebffff7a 	bl	27c <plot_pixel>
void clear_screen(){
    int x,y;
    for(x=0 ; x<320 ; x++){
        for(y=0 ; y<240 ; y++){
            if((x<MIN_X || x>=MAX_X || y<MIN_Y || y>=MAX_Y)){
                boardStatus[y][x] = 2;
     490:	e2844001 	add	r4, r4, #1
     494:	e2855c05 	add	r5, r5, #1280	; 0x500
     498:	e35400f0 	cmp	r4, #240	; 0xf0
     49c:	1affffe7 	bne	440 <clear_screen+0x24>
// write all addresses in buffer to draw the background picture
void clear_screen(){
    int x,y;
    for(x=0 ; x<320 ; x++){
        for(y=0 ; y<240 ; y++){
            if((x<MIN_X || x>=MAX_X || y<MIN_Y || y>=MAX_Y)){
     4a0:	e2866001 	add	r6, r6, #1
     4a4:	e2877004 	add	r7, r7, #4
     4a8:	e3560d05 	cmp	r6, #320	; 0x140
     4ac:	08bd8ff8 	popeq	{r3, r4, r5, r6, r7, r8, r9, r10, r11, pc}


// write all addresses in buffer to draw the background picture
void clear_screen(){
    int x,y;
    for(x=0 ; x<320 ; x++){
     4b0:	e3a05000 	mov	r5, #0
     4b4:	e1a04005 	mov	r4, r5
        for(y=0 ; y<240 ; y++){
            if((x<MIN_X || x>=MAX_X || y<MIN_Y || y>=MAX_Y)){
                boardStatus[y][x] = 2;
                if(MIN_Y / 2 + TITLE_HEIGHT / 2 > y){
     4b8:	e246800f 	sub	r8, r6, #15
     4bc:	eaffffdf 	b	440 <clear_screen+0x24>
     4c0:	00003800 	.word	0x00003800

000004c4 <writeScoreAndLife>:
}

// code for subroutines (not shown)
void writeScoreAndLife(int score, int lives){
    int scoreDigit[3];
    scoreDigit[0] = (score/100);
     4c4:	e92d4ff0 	push	{r4, r5, r6, r7, r8, r9, r10, r11, lr}
     4c8:	e24dd01c 	sub	sp, sp, #28
     4cc:	e58d1004 	str	r1, [sp, #4]
    scoreDigit[1] = (score/10) % 10;
    scoreDigit[2] = (score) % 10;
     4d0:	e308351f 	movw	r3, #34079	; 0x851f
     4d4:	e34531eb 	movt	r3, #20971	; 0x51eb
     4d8:	e0c21093 	smull	r1, r2, r3, r0
     4dc:	e1a03fc0 	asr	r3, r0, #31
     4e0:	e06322c2 	rsb	r2, r3, r2, asr #5
     4e4:	e58d200c 	str	r2, [sp, #12]

     4e8:	e3062667 	movw	r2, #26215	; 0x6667
     4ec:	e3462666 	movt	r2, #26214	; 0x6666
     4f0:	e0c1c092 	smull	r12, r1, r2, r0
     4f4:	e0633141 	rsb	r3, r3, r1, asr #2
     4f8:	e0c21392 	smull	r1, r2, r2, r3
     4fc:	e1a01fc3 	asr	r1, r3, #31
     500:	e0612142 	rsb	r2, r1, r2, asr #2
     504:	e0822102 	add	r2, r2, r2, lsl #2
     508:	e0432082 	sub	r2, r3, r2, lsl #1
     50c:	e58d2010 	str	r2, [sp, #16]
    int startY = MIN_Y / 2 - TITLE_HEIGHT / 2 - 1;
     510:	e0833103 	add	r3, r3, r3, lsl #2
     514:	e0400083 	sub	r0, r0, r3, lsl #1
     518:	e58d0014 	str	r0, [sp, #20]

    // draw the score title
    int x,y;
    for(x=0; x<45; x++){
        for(y=0; y<TITLE_HEIGHT; y++){
            plot_pixel(x + startXScore, y+startY, SCORELIFE[y][x+2]);
     51c:	e3a07000 	mov	r7, #0
}

// code for subroutines (not shown)
void writeScoreAndLife(int score, int lives){
    int scoreDigit[3];
    scoreDigit[0] = (score/100);
     520:	e3008e10 	movw	r8, #3600	; 0xe10
     524:	e3408000 	movt	r8, #0
     528:	e3a0a003 	mov	r10, #3
     52c:	ea00000b 	b	560 <writeScoreAndLife+0x9c>
    int x,y;
    for(x=0; x<45; x++){
        for(y=0; y<TITLE_HEIGHT; y++){
            plot_pixel(x + startXScore, y+startY, SCORELIFE[y][x+2]);
        }
    }
     530:	e1a00006 	mov	r0, r6
     534:	e1a01005 	mov	r1, r5
     538:	e1d420f4 	ldrsh	r2, [r4, #4]
     53c:	ebffff4e 	bl	27c <plot_pixel>
     540:	e2844f52 	add	r4, r4, #328	; 0x148
     544:	e2844002 	add	r4, r4, #2
     548:	e2855001 	add	r5, r5, #1
    // draw the score title
    int x,y;
    for(x=0; x<45; x++){
        for(y=0; y<TITLE_HEIGHT; y++){
            plot_pixel(x + startXScore, y+startY, SCORELIFE[y][x+2]);
        }
     54c:	e355000f 	cmp	r5, #15
     550:	1afffff6 	bne	530 <writeScoreAndLife+0x6c>

    // draw the score title
    int x,y;
    for(x=0; x<45; x++){
        for(y=0; y<TITLE_HEIGHT; y++){
            plot_pixel(x + startXScore, y+startY, SCORELIFE[y][x+2]);
     554:	e2877001 	add	r7, r7, #1
     558:	e357002d 	cmp	r7, #45	; 0x2d
     55c:	0a00001e 	beq	5dc <writeScoreAndLife+0x118>
}

// code for subroutines (not shown)
void writeScoreAndLife(int score, int lives){
    int scoreDigit[3];
    scoreDigit[0] = (score/100);
     560:	e0884087 	add	r4, r8, r7, lsl #1
     564:	e1a0500a 	mov	r5, r10
     568:	e287600f 	add	r6, r7, #15
     56c:	eaffffef 	b	530 <writeScoreAndLife+0x6c>
    for(i=0; i<3; i++){
        for(x=0; x<11; x++){
            for(y=0; y<TITLE_HEIGHT; y++){
                plot_pixel(x + startXScore + 45 + (11*i), y+startY, SCORELIFE[y][x + 45 + (11*scoreDigit[i])]);
            }
        }
     570:	e28d300c 	add	r3, sp, #12
     574:	e7973003 	ldr	r3, [r7, r3]
     578:	e0842104 	add	r2, r4, r4, lsl #2
     57c:	e0822282 	add	r2, r2, r2, lsl #5
     580:	e0831103 	add	r1, r3, r3, lsl #2
     584:	e0833081 	add	r3, r3, r1, lsl #1
     588:	e0833005 	add	r3, r3, r5
     58c:	e0822003 	add	r2, r2, r3
     590:	e1a02082 	lsl	r2, r2, #1
     594:	e1a00006 	mov	r0, r6
     598:	e2841003 	add	r1, r4, #3
     59c:	e19820f2 	ldrsh	r2, [r8, r2]
     5a0:	ebffff35 	bl	27c <plot_pixel>
    int i;
    for(i=0; i<3; i++){
        for(x=0; x<11; x++){
            for(y=0; y<TITLE_HEIGHT; y++){
                plot_pixel(x + startXScore + 45 + (11*i), y+startY, SCORELIFE[y][x + 45 + (11*scoreDigit[i])]);
            }
     5a4:	e2844001 	add	r4, r4, #1
     5a8:	e354000c 	cmp	r4, #12
     5ac:	1affffef 	bne	570 <writeScoreAndLife+0xac>
     5b0:	e2855001 	add	r5, r5, #1
    // draw the score
    int i;
    for(i=0; i<3; i++){
        for(x=0; x<11; x++){
            for(y=0; y<TITLE_HEIGHT; y++){
                plot_pixel(x + startXScore + 45 + (11*i), y+startY, SCORELIFE[y][x + 45 + (11*scoreDigit[i])]);
     5b4:	e3550038 	cmp	r5, #56	; 0x38
     5b8:	0a000002 	beq	5c8 <writeScoreAndLife+0x104>
}

// code for subroutines (not shown)
void writeScoreAndLife(int score, int lives){
    int scoreDigit[3];
    scoreDigit[0] = (score/100);
     5bc:	e0896005 	add	r6, r9, r5
     5c0:	e1a0400a 	mov	r4, r10
     5c4:	eaffffe9 	b	570 <writeScoreAndLife+0xac>
     5c8:	e2877004 	add	r7, r7, #4
     5cc:	e28bb00b 	add	r11, r11, #11

    // draw the score
    int i;
    for(i=0; i<3; i++){
        for(x=0; x<11; x++){
            for(y=0; y<TITLE_HEIGHT; y++){
     5d0:	e357000c 	cmp	r7, #12
     5d4:	1a000005 	bne	5f0 <writeScoreAndLife+0x12c>
     5d8:	ea000014 	b	630 <writeScoreAndLife+0x16c>

    // draw the score title
    int x,y;
    for(x=0; x<45; x++){
        for(y=0; y<TITLE_HEIGHT; y++){
            plot_pixel(x + startXScore, y+startY, SCORELIFE[y][x+2]);
     5dc:	e3a0b000 	mov	r11, #0
     5e0:	e1a0700b 	mov	r7, r11
}

// code for subroutines (not shown)
void writeScoreAndLife(int score, int lives){
    int scoreDigit[3];
    scoreDigit[0] = (score/100);
     5e4:	e1a0a00b 	mov	r10, r11
    for(i=0; i<3; i++){
        for(x=0; x<11; x++){
            for(y=0; y<TITLE_HEIGHT; y++){
                plot_pixel(x + startXScore + 45 + (11*i), y+startY, SCORELIFE[y][x + 45 + (11*scoreDigit[i])]);
            }
        }
     5e8:	e3008e10 	movw	r8, #3600	; 0xe10
     5ec:	e3408000 	movt	r8, #0
}

// code for subroutines (not shown)
void writeScoreAndLife(int score, int lives){
    int scoreDigit[3];
    scoreDigit[0] = (score/100);
     5f0:	e3a0502d 	mov	r5, #45	; 0x2d
     5f4:	e28b900f 	add	r9, r11, #15
     5f8:	eaffffef 	b	5bc <writeScoreAndLife+0xf8>
    // draw the life title
    for(x=0; x<47; x++){
        for(y=0; y<TITLE_HEIGHT; y++){
            plot_pixel(x + startXLife, y+startY, SCORELIFE[TITLE_HEIGHT + y][x]);
        }
    }
     5fc:	e1a00006 	mov	r0, r6
     600:	e1a01005 	mov	r1, r5
     604:	e1d420f0 	ldrsh	r2, [r4]
     608:	ebffff1b 	bl	27c <plot_pixel>
     60c:	e2844f52 	add	r4, r4, #328	; 0x148
     610:	e2844002 	add	r4, r4, #2
     614:	e2855001 	add	r5, r5, #1

    // draw the life title
    for(x=0; x<47; x++){
        for(y=0; y<TITLE_HEIGHT; y++){
            plot_pixel(x + startXLife, y+startY, SCORELIFE[TITLE_HEIGHT + y][x]);
        }
     618:	e355000f 	cmp	r5, #15
     61c:	1afffff6 	bne	5fc <writeScoreAndLife+0x138>
    }

    // draw the life title
    for(x=0; x<47; x++){
        for(y=0; y<TITLE_HEIGHT; y++){
            plot_pixel(x + startXLife, y+startY, SCORELIFE[TITLE_HEIGHT + y][x]);
     620:	e2877001 	add	r7, r7, #1
     624:	e357002f 	cmp	r7, #47	; 0x2f
     628:	1a000004 	bne	640 <writeScoreAndLife+0x17c>
     62c:	ea000009 	b	658 <writeScoreAndLife+0x194>

    // draw the score
    int i;
    for(i=0; i<3; i++){
        for(x=0; x<11; x++){
            for(y=0; y<TITLE_HEIGHT; y++){
     630:	e3a07000 	mov	r7, #0
}

// code for subroutines (not shown)
void writeScoreAndLife(int score, int lives){
    int scoreDigit[3];
    scoreDigit[0] = (score/100);
     634:	e3008e10 	movw	r8, #3600	; 0xe10
     638:	e3408000 	movt	r8, #0
     63c:	e3a0a003 	mov	r10, #3
     640:	e2874e7b 	add	r4, r7, #1968	; 0x7b0
     644:	e284400c 	add	r4, r4, #12
     648:	e0884084 	add	r4, r8, r4, lsl #1
     64c:	e1a0500a 	mov	r5, r10
     650:	e28760c8 	add	r6, r7, #200	; 0xc8
     654:	eaffffe8 	b	5fc <writeScoreAndLife+0x138>
    }

    // draw the life hearts
    for(i=0; i<lives; i++){
        for(x=0; x<16; x++){
            for(y=0; y<TITLE_HEIGHT; y++){
     658:	e59d3004 	ldr	r3, [sp, #4]
     65c:	e3530000 	cmp	r3, #0
     660:	c3a0b000 	movgt	r11, #0
}

// code for subroutines (not shown)
void writeScoreAndLife(int score, int lives){
    int scoreDigit[3];
    scoreDigit[0] = (score/100);
     664:	c300ae10 	movwgt	r10, #3600	; 0xe10
     668:	c340a000 	movtgt	r10, #0
     66c:	c3a09003 	movgt	r9, #3
    }

    // draw the life hearts
    for(i=0; i<lives; i++){
        for(x=0; x<16; x++){
            for(y=0; y<TITLE_HEIGHT; y++){
     670:	ca000016 	bgt	6d0 <writeScoreAndLife+0x20c>
     674:	ea000019 	b	6e0 <writeScoreAndLife+0x21c>
                plot_pixel(x + startXLife + 47 + (i*16), y+startY, SCORELIFE[TITLE_HEIGHT + y][x + 47]);
            }
        }
     678:	e1a00006 	mov	r0, r6
     67c:	e1a01005 	mov	r1, r5
     680:	e1d420f0 	ldrsh	r2, [r4]
     684:	ebfffefc 	bl	27c <plot_pixel>
     688:	e2844f52 	add	r4, r4, #328	; 0x148
     68c:	e2844002 	add	r4, r4, #2
     690:	e2855001 	add	r5, r5, #1
    // draw the life hearts
    for(i=0; i<lives; i++){
        for(x=0; x<16; x++){
            for(y=0; y<TITLE_HEIGHT; y++){
                plot_pixel(x + startXLife + 47 + (i*16), y+startY, SCORELIFE[TITLE_HEIGHT + y][x + 47]);
            }
     694:	e355000f 	cmp	r5, #15
     698:	1afffff6 	bne	678 <writeScoreAndLife+0x1b4>
     69c:	e2877001 	add	r7, r7, #1

    // draw the life hearts
    for(i=0; i<lives; i++){
        for(x=0; x<16; x++){
            for(y=0; y<TITLE_HEIGHT; y++){
                plot_pixel(x + startXLife + 47 + (i*16), y+startY, SCORELIFE[TITLE_HEIGHT + y][x + 47]);
     6a0:	e357003f 	cmp	r7, #63	; 0x3f
     6a4:	0a000005 	beq	6c0 <writeScoreAndLife+0x1fc>
}

// code for subroutines (not shown)
void writeScoreAndLife(int score, int lives){
    int scoreDigit[3];
    scoreDigit[0] = (score/100);
     6a8:	e0886007 	add	r6, r8, r7
     6ac:	e2874e7b 	add	r4, r7, #1968	; 0x7b0
     6b0:	e284400c 	add	r4, r4, #12
     6b4:	e08a4084 	add	r4, r10, r4, lsl #1
     6b8:	e1a05009 	mov	r5, r9
     6bc:	eaffffed 	b	678 <writeScoreAndLife+0x1b4>
    }

    // draw the life hearts
    for(i=0; i<lives; i++){
        for(x=0; x<16; x++){
            for(y=0; y<TITLE_HEIGHT; y++){
     6c0:	e28bb001 	add	r11, r11, #1
     6c4:	e59dc004 	ldr	r12, [sp, #4]
     6c8:	e15b000c 	cmp	r11, r12
     6cc:	0a000003 	beq	6e0 <writeScoreAndLife+0x21c>
}

// code for subroutines (not shown)
void writeScoreAndLife(int score, int lives){
    int scoreDigit[3];
    scoreDigit[0] = (score/100);
     6d0:	e1a0820b 	lsl	r8, r11, #4
     6d4:	e3a0702f 	mov	r7, #47	; 0x2f
     6d8:	e28880c8 	add	r8, r8, #200	; 0xc8
     6dc:	eafffff1 	b	6a8 <writeScoreAndLife+0x1e4>
            }
        }
    }
}


     6e0:	e28dd01c 	add	sp, sp, #28
     6e4:	e8bd8ff0 	pop	{r4, r5, r6, r7, r8, r9, r10, r11, pc}

000006e8 <wait_for_vsync>:
    volatile int * pixel_ctrl_ptr = (int *) 0xFF203020; // pixel controller
    register int status;

    *pixel_ctrl_ptr = 1; // start the sync process

    status = *(pixel_ctrl_ptr+3);
     6e8:	e3033fff 	movw	r3, #16383	; 0x3fff
     6ec:	e34f3f20 	movt	r3, #65312	; 0xff20
     6f0:	e3a02001 	mov	r2, #1
     6f4:	e5032fdf 	str	r2, [r3, #-4063]	; 0xfffff021
    while((status & 0x01) != 0){
        status = *(pixel_ctrl_ptr + 3);
     6f8:	e5133fd3 	ldr	r3, [r3, #-4051]	; 0xfffff02d
    }
     6fc:	e3130001 	tst	r3, #1
     700:	012fff1e 	bxeq	lr
}
     704:	e3032fff 	movw	r2, #16383	; 0x3fff
     708:	e34f2f20 	movt	r2, #65312	; 0xff20
     70c:	e5123fd3 	ldr	r3, [r2, #-4051]	; 0xfffff02d
    *pixel_ctrl_ptr = 1; // start the sync process

    status = *(pixel_ctrl_ptr+3);
    while((status & 0x01) != 0){
        status = *(pixel_ctrl_ptr + 3);
    }
     710:	e3130001 	tst	r3, #1
     714:	1afffffc 	bne	70c <wait_for_vsync+0x24>
     718:	e12fff1e 	bx	lr

0000071c <main>:
void swap(int *n0, int *n1);
int abs(int x);
void plot_pixel(int x, int y, short int line_color);
void wait_for_vsync();

int main(void) {
     71c:	e92d4ff0 	push	{r4, r5, r6, r7, r8, r9, r10, r11, lr}
     720:	e24dd06c 	sub	sp, sp, #108	; 0x6c

    bool drawBrick[NUM_ROW_OF_BOX][NUM_BOX_PER_ROW];
    int i,j;
    for(i=0; i<NUM_ROW_OF_BOX; i++){
        for(j=0; j<NUM_BOX_PER_ROW; j++){
            drawBrick[i][j] = true;
     724:	e3a03001 	mov	r3, #1
     728:	e5cd3048 	strb	r3, [sp, #72]	; 0x48
     72c:	e5cd3049 	strb	r3, [sp, #73]	; 0x49
     730:	e5cd304a 	strb	r3, [sp, #74]	; 0x4a
     734:	e5cd304b 	strb	r3, [sp, #75]	; 0x4b
     738:	e5cd304c 	strb	r3, [sp, #76]	; 0x4c
     73c:	e5cd304d 	strb	r3, [sp, #77]	; 0x4d
     740:	e5cd304e 	strb	r3, [sp, #78]	; 0x4e
     744:	e5cd304f 	strb	r3, [sp, #79]	; 0x4f
     748:	e5cd3050 	strb	r3, [sp, #80]	; 0x50
     74c:	e5cd3051 	strb	r3, [sp, #81]	; 0x51
     750:	e5cd3052 	strb	r3, [sp, #82]	; 0x52
     754:	e5cd3053 	strb	r3, [sp, #83]	; 0x53
     758:	e5cd3054 	strb	r3, [sp, #84]	; 0x54
     75c:	e5cd3055 	strb	r3, [sp, #85]	; 0x55
     760:	e5cd3056 	strb	r3, [sp, #86]	; 0x56
     764:	e5cd3057 	strb	r3, [sp, #87]	; 0x57
     768:	e5cd3058 	strb	r3, [sp, #88]	; 0x58
     76c:	e5cd3059 	strb	r3, [sp, #89]	; 0x59
     770:	e5cd305a 	strb	r3, [sp, #90]	; 0x5a
     774:	e5cd305b 	strb	r3, [sp, #91]	; 0x5b
     778:	e5cd305c 	strb	r3, [sp, #92]	; 0x5c
     77c:	e5cd305d 	strb	r3, [sp, #93]	; 0x5d
     780:	e5cd305e 	strb	r3, [sp, #94]	; 0x5e
     784:	e5cd305f 	strb	r3, [sp, #95]	; 0x5f
     788:	e5cd3060 	strb	r3, [sp, #96]	; 0x60
     78c:	e5cd3061 	strb	r3, [sp, #97]	; 0x61
     790:	e5cd3062 	strb	r3, [sp, #98]	; 0x62
     794:	e5cd3063 	strb	r3, [sp, #99]	; 0x63
     798:	e5cd3064 	strb	r3, [sp, #100]	; 0x64
     79c:	e5cd3065 	strb	r3, [sp, #101]	; 0x65
     7a0:	e5cd3066 	strb	r3, [sp, #102]	; 0x66
     7a4:	e5cd3067 	strb	r3, [sp, #103]	; 0x67
    int paddleX = (MAX_X + MIN_X)/2 - PADDLE_X/2;

    /* set front pixel buffer to start of FPGA On-chip memory */
    *(pixel_ctrl_ptr + 1) = 0xC8000000; // first store the address in the 
                                        // back buffer

     7a8:	e3034fff 	movw	r4, #16383	; 0x3fff
     7ac:	e34f4f20 	movt	r4, #65312	; 0xff20
     7b0:	e3a03332 	mov	r3, #-939524096	; 0xc8000000
     7b4:	e5043fdb 	str	r3, [r4, #-4059]	; 0xfffff025
    /* now, swap the front/back buffers, to set the front buffer location */
    wait_for_vsync();

    /* initialize a pointer to the pixel buffer, used by drawing functions */
     7b8:	ebffffca 	bl	6e8 <wait_for_vsync>
    pixel_buffer_start = *pixel_ctrl_ptr;
    clear_screen(); // pixel_buffer_start points to the pixel buffer

     7bc:	e5143fdf 	ldr	r3, [r4, #-4063]	; 0xfffff021
     7c0:	e30357fc 	movw	r5, #14332	; 0x37fc
     7c4:	e3405000 	movt	r5, #0
     7c8:	e5853000 	str	r3, [r5]
    /* set back pixel buffer to start of SDRAM memory */
     7cc:	ebffff12 	bl	41c <clear_screen>
    // without double buffer, sometimes near the top/left the image gets cutoff/missing(black)
    *(pixel_ctrl_ptr + 1) = 0xC0000000;
    pixel_buffer_start = *(pixel_ctrl_ptr + 1); // we draw on the back buffer

     7d0:	e3a03103 	mov	r3, #-1073741824	; 0xc0000000
     7d4:	e5043fdb 	str	r3, [r4, #-4059]	; 0xfffff025
    int ball_x = paddleX + PADDLE_X/2 - BALL_SIZE/2; // paddleX+PADDLE_X/2 = center of paddle; - BALL_SIZE/2 to get left of ball
     7d8:	e5143fdb 	ldr	r3, [r4, #-4059]	; 0xfffff025
     7dc:	e5853000 	str	r3, [r5]
    int ball_y = PADDLE_POSITION_Y - BALL_SIZE; // PADDLE_POSITION_Y = top of box; + BALL_SIZE to have box sitting on paddle
    int ball_dx = rand()%3-1;
    int ball_dy = -2; // minus is up

     7e0:	eb0009b6 	bl	2ec0 <rand>
     7e4:	e3053556 	movw	r3, #21846	; 0x5556
     7e8:	e3453555 	movt	r3, #21845	; 0x5555
     7ec:	e0c31093 	smull	r1, r3, r3, r0
     7f0:	e0433fc0 	sub	r3, r3, r0, asr #31
     7f4:	e0833083 	add	r3, r3, r3, lsl #1
     7f8:	e0630000 	rsb	r0, r3, r0
     7fc:	e2407001 	sub	r7, r0, #1
    
    bool round_started = false;
    while (true){
        // Read key values
     800:	e3a02000 	mov	r2, #0
     804:	e58d2020 	str	r2, [sp, #32]
    int ball_x = paddleX + PADDLE_X/2 - BALL_SIZE/2; // paddleX+PADDLE_X/2 = center of paddle; - BALL_SIZE/2 to get left of ball
    int ball_y = PADDLE_POSITION_Y - BALL_SIZE; // PADDLE_POSITION_Y = top of box; + BALL_SIZE to have box sitting on paddle
    int ball_dx = rand()%3-1;
    int ball_dy = -2; // minus is up

    
     808:	e3e06001 	mvn	r6, #1
    pixel_buffer_start = *(pixel_ctrl_ptr + 1); // we draw on the back buffer

    int ball_x = paddleX + PADDLE_X/2 - BALL_SIZE/2; // paddleX+PADDLE_X/2 = center of paddle; - BALL_SIZE/2 to get left of ball
    int ball_y = PADDLE_POSITION_Y - BALL_SIZE; // PADDLE_POSITION_Y = top of box; + BALL_SIZE to have box sitting on paddle
    int ball_dx = rand()%3-1;
    int ball_dy = -2; // minus is up
     80c:	e3a0b0cc 	mov	r11, #204	; 0xcc
    *(pixel_ctrl_ptr + 1) = 0xC0000000;
    pixel_buffer_start = *(pixel_ctrl_ptr + 1); // we draw on the back buffer

    int ball_x = paddleX + PADDLE_X/2 - BALL_SIZE/2; // paddleX+PADDLE_X/2 = center of paddle; - BALL_SIZE/2 to get left of ball
    int ball_y = PADDLE_POSITION_Y - BALL_SIZE; // PADDLE_POSITION_Y = top of box; + BALL_SIZE to have box sitting on paddle
    int ball_dx = rand()%3-1;
     810:	e3a0809c 	mov	r8, #156	; 0x9c
    bool padLeft = false;
    bool padRight = false;

    int paddleX = (MAX_X + MIN_X)/2 - PADDLE_X/2;

    /* set front pixel buffer to start of FPGA On-chip memory */
     814:	e3a0907f 	mov	r9, #127	; 0x7f

    volatile int * pixel_ctrl_ptr = (int *) 0xFF203020;
    volatile int * key_ptr = (int *) 0xFF200050;

    int score = 0;
    int lives = 3;
     818:	e3a03003 	mov	r3, #3
     81c:	e58d3014 	str	r3, [sp, #20]
int main(void) {

    volatile int * pixel_ctrl_ptr = (int *) 0xFF203020;
    volatile int * key_ptr = (int *) 0xFF200050;

    int score = 0;
     820:	e58d2018 	str	r2, [sp, #24]
    bool round_started = false;
    while (true){
        // Read key values
        short int keyPressCurrent = (*key_ptr);
        short int keyPressEdge = *(key_ptr + 3);
        *(key_ptr + 3) = keyPressEdge; // reset edge 
     824:	e1a0e002 	mov	lr, r2
     828:	e34fef20 	movt	lr, #65312	; 0xff20
     82c:	e58de028 	str	lr, [sp, #40]	; 0x28
                for(y=0; y<NUM_ROW_OF_BOX; y++){
                    for(x=0; x<NUM_BOX_PER_ROW; x++){
                        if(drawBrick[y][x]){
                            plot_boxes(MIN_X + PADDING + x*(BOX_X+PADDING), MIN_Y + PADDING + y*(BOX_Y+PADDING), BOX_X, BOX_Y, BOX_COLOUR);
                        }
                    }
     830:	e3090ac4 	movw	r0, #39620	; 0x9ac4
     834:	e34f0fff 	movt	r0, #65535	; 0xffff
     838:	e58d002c 	str	r0, [sp, #44]	; 0x2c
                }
                plot_boxes(paddleX, PADDLE_POSITION_Y, PADDLE_X, PADDLE_Y, PADDLE_COLOUR);
                wait_for_vsync(); // swap front and back buffers on VGA vertical sync
                pixel_buffer_start = *(pixel_ctrl_ptr + 1); // new back buffer
                continue;
            }
     83c:	e58d501c 	str	r5, [sp, #28]
                paddleX = (MAX_X + MIN_X)/2 - PADDLE_X/2;
                ball_x = paddleX + PADDLE_X/2 - BALL_SIZE/2; // paddleX+PADDLE_X/2 = center of paddle; - BALL_SIZE/2 to get left of ball
                ball_y = PADDLE_POSITION_Y - BALL_SIZE; // PADDLE_POSITION_Y = top of box; + BALL_SIZE to have box sitting on paddle
                ball_dx = rand()%3-1;
                ball_dy = -2; // minus is up
            } else {
     840:	e3052556 	movw	r2, #21846	; 0x5556
     844:	e3452555 	movt	r2, #21845	; 0x5555
     848:	e58d2030 	str	r2, [sp, #48]	; 0x30
     84c:	e2853004 	add	r3, r5, #4
     850:	e58d3038 	str	r3, [sp, #56]	; 0x38
void swap(int *n0, int *n1);
int abs(int x);
void plot_pixel(int x, int y, short int line_color);
void wait_for_vsync();

int main(void) {
     854:	e283ec05 	add	lr, r3, #1280	; 0x500
     858:	e58de040 	str	lr, [sp, #64]	; 0x40
    bool round_started = false;
    while (true){
        // Read key values
        short int keyPressCurrent = (*key_ptr);
        short int keyPressEdge = *(key_ptr + 3);
        *(key_ptr + 3) = keyPressEdge; // reset edge 
     85c:	e59d0028 	ldr	r0, [sp, #40]	; 0x28
     860:	e5902050 	ldr	r2, [r0, #80]	; 0x50
        short int keyPress = (keyPressCurrent | keyPressEdge); // so either if the key is being pressed or if it was pressed while drawing
     864:	e590305c 	ldr	r3, [r0, #92]	; 0x5c
     868:	e6ff3073 	uxth	r3, r3

     86c:	e6bf1073 	sxth	r1, r3
     870:	e580105c 	str	r1, [r0, #92]	; 0x5c
        int x,y;
     874:	e1833002 	orr	r3, r3, r2
     878:	e6ff3073 	uxth	r3, r3
     87c:	e58d300c 	str	r3, [sp, #12]
        
        // Handle waiting for KEY1 to be pressed to start a life
        if (!round_started) {
            if (keyPress == 0b0010 && lives > 0) {
                round_started = true;
     880:	e59d1020 	ldr	r1, [sp, #32]
     884:	e3510000 	cmp	r1, #0
     888:	1a000074 	bne	a60 <main+0x344>
            } else if (keyPress == 0b1000 && lives == 0){ // if key3, reset everything
     88c:	e6bf2073 	sxth	r2, r3
     890:	e59de014 	ldr	lr, [sp, #20]
     894:	e35e0000 	cmp	lr, #0
     898:	d3a03000 	movle	r3, #0
     89c:	c3a03001 	movgt	r3, #1
     8a0:	e3520002 	cmp	r2, #2
     8a4:	13a03000 	movne	r3, #0
     8a8:	e3530000 	cmp	r3, #0
                round_started = false;
     8ac:	13a00001 	movne	r0, #1
     8b0:	158d0020 	strne	r0, [sp, #32]
        
        // Handle waiting for KEY1 to be pressed to start a life
        if (!round_started) {
            if (keyPress == 0b0010 && lives > 0) {
                round_started = true;
            } else if (keyPress == 0b1000 && lives == 0){ // if key3, reset everything
     8b4:	1a000069 	bne	a60 <main+0x344>
                round_started = false;

     8b8:	e59d000c 	ldr	r0, [sp, #12]
     8bc:	e6bf3070 	sxth	r3, r0
     8c0:	e35e0000 	cmp	lr, #0
     8c4:	03530008 	cmpeq	r3, #8
     8c8:	1a000030 	bne	990 <main+0x274>
                for(y=0; y<NUM_ROW_OF_BOX; y++){
                    for(x=0; x<NUM_BOX_PER_ROW; x++){
                        drawBrick[y][x] = true;
                    }
                }
     8cc:	e3a03001 	mov	r3, #1
     8d0:	e5cd3048 	strb	r3, [sp, #72]	; 0x48
     8d4:	e5cd3049 	strb	r3, [sp, #73]	; 0x49
     8d8:	e5cd304a 	strb	r3, [sp, #74]	; 0x4a
     8dc:	e5cd304b 	strb	r3, [sp, #75]	; 0x4b
     8e0:	e5cd304c 	strb	r3, [sp, #76]	; 0x4c
     8e4:	e5cd304d 	strb	r3, [sp, #77]	; 0x4d
     8e8:	e5cd304e 	strb	r3, [sp, #78]	; 0x4e
     8ec:	e5cd304f 	strb	r3, [sp, #79]	; 0x4f
     8f0:	e5cd3050 	strb	r3, [sp, #80]	; 0x50
     8f4:	e5cd3051 	strb	r3, [sp, #81]	; 0x51
     8f8:	e5cd3052 	strb	r3, [sp, #82]	; 0x52
     8fc:	e5cd3053 	strb	r3, [sp, #83]	; 0x53
     900:	e5cd3054 	strb	r3, [sp, #84]	; 0x54
     904:	e5cd3055 	strb	r3, [sp, #85]	; 0x55
     908:	e5cd3056 	strb	r3, [sp, #86]	; 0x56
     90c:	e5cd3057 	strb	r3, [sp, #87]	; 0x57
     910:	e5cd3058 	strb	r3, [sp, #88]	; 0x58
     914:	e5cd3059 	strb	r3, [sp, #89]	; 0x59
     918:	e5cd305a 	strb	r3, [sp, #90]	; 0x5a
     91c:	e5cd305b 	strb	r3, [sp, #91]	; 0x5b
     920:	e5cd305c 	strb	r3, [sp, #92]	; 0x5c
     924:	e5cd305d 	strb	r3, [sp, #93]	; 0x5d
     928:	e5cd305e 	strb	r3, [sp, #94]	; 0x5e
     92c:	e5cd305f 	strb	r3, [sp, #95]	; 0x5f
     930:	e5cd3060 	strb	r3, [sp, #96]	; 0x60
     934:	e5cd3061 	strb	r3, [sp, #97]	; 0x61
     938:	e5cd3062 	strb	r3, [sp, #98]	; 0x62
     93c:	e5cd3063 	strb	r3, [sp, #99]	; 0x63
     940:	e5cd3064 	strb	r3, [sp, #100]	; 0x64
     944:	e5cd3065 	strb	r3, [sp, #101]	; 0x65
     948:	e5cd3066 	strb	r3, [sp, #102]	; 0x66
     94c:	e5cd3067 	strb	r3, [sp, #103]	; 0x67
                paddleX = (MAX_X + MIN_X)/2 - PADDLE_X/2;
                ball_x = paddleX + PADDLE_X/2 - BALL_SIZE/2; // paddleX+PADDLE_X/2 = center of paddle; - BALL_SIZE/2 to get left of ball
                ball_y = PADDLE_POSITION_Y - BALL_SIZE; // PADDLE_POSITION_Y = top of box; + BALL_SIZE to have box sitting on paddle
                ball_dx = rand()%3-1;
                ball_dy = -2; // minus is up
            } else {
     950:	eb00095a 	bl	2ec0 <rand>
     954:	e59d1030 	ldr	r1, [sp, #48]	; 0x30
     958:	e0c31091 	smull	r1, r3, r1, r0
     95c:	e0433fc0 	sub	r3, r3, r0, asr #31
     960:	e0833083 	add	r3, r3, r3, lsl #1
     964:	e0630000 	rsb	r0, r3, r0
     968:	e2407001 	sub	r7, r0, #1
                // Initial Draw
     96c:	e3e06001 	mvn	r6, #1

                paddleX = (MAX_X + MIN_X)/2 - PADDLE_X/2;
                ball_x = paddleX + PADDLE_X/2 - BALL_SIZE/2; // paddleX+PADDLE_X/2 = center of paddle; - BALL_SIZE/2 to get left of ball
                ball_y = PADDLE_POSITION_Y - BALL_SIZE; // PADDLE_POSITION_Y = top of box; + BALL_SIZE to have box sitting on paddle
                ball_dx = rand()%3-1;
                ball_dy = -2; // minus is up
     970:	e3a0b0cc 	mov	r11, #204	; 0xcc
                lives = 3;

                paddleX = (MAX_X + MIN_X)/2 - PADDLE_X/2;
                ball_x = paddleX + PADDLE_X/2 - BALL_SIZE/2; // paddleX+PADDLE_X/2 = center of paddle; - BALL_SIZE/2 to get left of ball
                ball_y = PADDLE_POSITION_Y - BALL_SIZE; // PADDLE_POSITION_Y = top of box; + BALL_SIZE to have box sitting on paddle
                ball_dx = rand()%3-1;
     974:	e3a0809c 	mov	r8, #156	; 0x9c
                score = 0;
                lives = 3;

                paddleX = (MAX_X + MIN_X)/2 - PADDLE_X/2;
                ball_x = paddleX + PADDLE_X/2 - BALL_SIZE/2; // paddleX+PADDLE_X/2 = center of paddle; - BALL_SIZE/2 to get left of ball
                ball_y = PADDLE_POSITION_Y - BALL_SIZE; // PADDLE_POSITION_Y = top of box; + BALL_SIZE to have box sitting on paddle
     978:	e3a0907f 	mov	r9, #127	; 0x7f
                }

                score = 0;
                lives = 3;

                paddleX = (MAX_X + MIN_X)/2 - PADDLE_X/2;
     97c:	e3a02003 	mov	r2, #3
     980:	e58d2014 	str	r2, [sp, #20]
                    }
                }

                score = 0;
                lives = 3;

     984:	e3a03000 	mov	r3, #0
     988:	e58d3018 	str	r3, [sp, #24]
     98c:	ea000033 	b	a60 <main+0x344>
                ball_dy = -2; // minus is up
            } else {
                // Initial Draw
                clear_screen();
                writeScoreAndLife(score, lives);
                drawBall(ball_x, ball_y, BALL_SIZE);
     990:	ebfffea1 	bl	41c <clear_screen>
                
     994:	e59d0018 	ldr	r0, [sp, #24]
     998:	e59d1014 	ldr	r1, [sp, #20]
     99c:	ebfffec8 	bl	4c4 <writeScoreAndLife>
                for(y=0; y<NUM_ROW_OF_BOX; y++){
     9a0:	e1a00008 	mov	r0, r8
     9a4:	e1a0100b 	mov	r1, r11
     9a8:	e3a02006 	mov	r2, #6
     9ac:	ebfffe39 	bl	298 <drawBall>
     9b0:	e3a0e015 	mov	lr, #21
     9b4:	e58de00c 	str	lr, [sp, #12]
                    for(x=0; x<NUM_BOX_PER_ROW; x++){
                        if(drawBrick[y][x]){
     9b8:	e3a0a000 	mov	r10, #0
     9bc:	ea000012 	b	a0c <main+0x2f0>
                            plot_boxes(MIN_X + PADDING + x*(BOX_X+PADDING), MIN_Y + PADDING + y*(BOX_Y+PADDING), BOX_X, BOX_Y, BOX_COLOUR);
                        }
     9c0:	e5f53001 	ldrb	r3, [r5, #1]!
     9c4:	e3530000 	cmp	r3, #0
     9c8:	0a000006 	beq	9e8 <main+0x2cc>
                    }
     9cc:	e59d002c 	ldr	r0, [sp, #44]	; 0x2c
     9d0:	e58d0000 	str	r0, [sp]
     9d4:	e1a00004 	mov	r0, r4
     9d8:	e59d1010 	ldr	r1, [sp, #16]
     9dc:	e3a02023 	mov	r2, #35	; 0x23
     9e0:	e3a0300f 	mov	r3, #15
     9e4:	ebfffe4e 	bl	324 <plot_boxes>
     9e8:	e2844024 	add	r4, r4, #36	; 0x24
                drawBall(ball_x, ball_y, BALL_SIZE);
                
                for(y=0; y<NUM_ROW_OF_BOX; y++){
                    for(x=0; x<NUM_BOX_PER_ROW; x++){
                        if(drawBrick[y][x]){
                            plot_boxes(MIN_X + PADDING + x*(BOX_X+PADDING), MIN_Y + PADDING + y*(BOX_Y+PADDING), BOX_X, BOX_Y, BOX_COLOUR);
     9ec:	e3540e13 	cmp	r4, #304	; 0x130
     9f0:	1afffff2 	bne	9c0 <main+0x2a4>
                writeScoreAndLife(score, lives);
                drawBall(ball_x, ball_y, BALL_SIZE);
                
                for(y=0; y<NUM_ROW_OF_BOX; y++){
                    for(x=0; x<NUM_BOX_PER_ROW; x++){
                        if(drawBrick[y][x]){
     9f4:	e28aa001 	add	r10, r10, #1
     9f8:	e59d100c 	ldr	r1, [sp, #12]
     9fc:	e2811010 	add	r1, r1, #16
     a00:	e58d100c 	str	r1, [sp, #12]
     a04:	e35a0004 	cmp	r10, #4
     a08:	0a000006 	beq	a28 <main+0x30c>
                            plot_boxes(MIN_X + PADDING + x*(BOX_X+PADDING), MIN_Y + PADDING + y*(BOX_Y+PADDING), BOX_X, BOX_Y, BOX_COLOUR);
                        }
                    }
     a0c:	e59d200c 	ldr	r2, [sp, #12]
     a10:	e58d2010 	str	r2, [sp, #16]
void swap(int *n0, int *n1);
int abs(int x);
void plot_pixel(int x, int y, short int line_color);
void wait_for_vsync();

int main(void) {
     a14:	e28d3048 	add	r3, sp, #72	; 0x48
     a18:	e083518a 	add	r5, r3, r10, lsl #3
     a1c:	e2455001 	sub	r5, r5, #1
     a20:	e3a04010 	mov	r4, #16
     a24:	eaffffe5 	b	9c0 <main+0x2a4>
                        }
                    }
                }
                plot_boxes(paddleX, PADDLE_POSITION_Y, PADDLE_X, PADDLE_Y, PADDLE_COLOUR);
                wait_for_vsync(); // swap front and back buffers on VGA vertical sync
                pixel_buffer_start = *(pixel_ctrl_ptr + 1); // new back buffer
     a28:	e304311e 	movw	r3, #16670	; 0x411e
     a2c:	e58d3000 	str	r3, [sp]
     a30:	e1a00009 	mov	r0, r9
     a34:	e3a010d2 	mov	r1, #210	; 0xd2
     a38:	e3a02040 	mov	r2, #64	; 0x40
     a3c:	e3a0300a 	mov	r3, #10
     a40:	ebfffe37 	bl	324 <plot_boxes>
                continue;
     a44:	ebffff27 	bl	6e8 <wait_for_vsync>
            }
     a48:	e3033fff 	movw	r3, #16383	; 0x3fff
     a4c:	e34f3f20 	movt	r3, #65312	; 0xff20
     a50:	e5133fdb 	ldr	r3, [r3, #-4059]	; 0xfffff025
     a54:	e59de01c 	ldr	lr, [sp, #28]
     a58:	e58e3000 	str	r3, [lr]
        }
     a5c:	eaffff7e 	b	85c <main+0x140>
void swap(int *n0, int *n1);
int abs(int x);
void plot_pixel(int x, int y, short int line_color);
void wait_for_vsync();

int main(void) {
     a60:	e3a01015 	mov	r1, #21
     a64:	e58d1010 	str	r1, [sp, #16]

        /* Check whether the ball has hit anything */
        // If it's hit a brick, remove the brick
        for(y=0; y<NUM_ROW_OF_BOX; y++) {
            for(x=0; x<NUM_BOX_PER_ROW; x++){
                if(drawBrick[y][x]) {
     a68:	e3a05000 	mov	r5, #0
                    int box_right = box_left + BOX_X;
                    int box_top = MIN_Y+PADDING+y*(BOX_Y+PADDING);
                    int box_bot = box_top + BOX_Y;
                    if (ball_x+BALL_SIZE >= box_left && ball_x < box_right) {
                        // ball is within X range of box
                        if (ball_y+BALL_SIZE >= box_top && ball_y < box_bot) {
     a6c:	e2882006 	add	r2, r8, #6
     a70:	e58d2024 	str	r2, [sp, #36]	; 0x24
                            // ball is within Y range of box
                            // break box! 
     a74:	e28b3006 	add	r3, r11, #6
     a78:	e58d3034 	str	r3, [sp, #52]	; 0x34
     a7c:	e58d9044 	str	r9, [sp, #68]	; 0x44
     a80:	ea00004c 	b	bb8 <main+0x49c>
        // If it's hit a brick, remove the brick
        for(y=0; y<NUM_ROW_OF_BOX; y++) {
            for(x=0; x<NUM_BOX_PER_ROW; x++){
                if(drawBrick[y][x]) {
                    int box_left = MIN_X+PADDING+x*(BOX_X+PADDING); 
                    int box_right = box_left + BOX_X;
     a84:	e7d0e003 	ldrb	lr, [r0, r3]
     a88:	e35e0000 	cmp	lr, #0
     a8c:	0a00003e 	beq	b8c <main+0x470>
                    int box_top = MIN_Y+PADDING+y*(BOX_Y+PADDING);
     a90:	e1a09002 	mov	r9, r2
                    int box_bot = box_top + BOX_Y;
                    if (ball_x+BALL_SIZE >= box_left && ball_x < box_right) {
                        // ball is within X range of box
                        if (ball_y+BALL_SIZE >= box_top && ball_y < box_bot) {
     a94:	e59d4024 	ldr	r4, [sp, #36]	; 0x24
     a98:	e1520004 	cmp	r2, r4
     a9c:	ca00003a 	bgt	b8c <main+0x470>
            for(x=0; x<NUM_BOX_PER_ROW; x++){
                if(drawBrick[y][x]) {
                    int box_left = MIN_X+PADDING+x*(BOX_X+PADDING); 
                    int box_right = box_left + BOX_X;
                    int box_top = MIN_Y+PADDING+y*(BOX_Y+PADDING);
                    int box_bot = box_top + BOX_Y;
     aa0:	e58d103c 	str	r1, [sp, #60]	; 0x3c
                    if (ball_x+BALL_SIZE >= box_left && ball_x < box_right) {
                        // ball is within X range of box
                        if (ball_y+BALL_SIZE >= box_top && ball_y < box_bot) {
     aa4:	e1580001 	cmp	r8, r1
     aa8:	aa000037 	bge	b8c <main+0x470>
                            // ball is within Y range of box
                            // break box! 
     aac:	e59de034 	ldr	lr, [sp, #52]	; 0x34
     ab0:	e58de008 	str	lr, [sp, #8]
     ab4:	e15c000e 	cmp	r12, lr
     ab8:	ca000033 	bgt	b8c <main+0x470>
     abc:	e15b000a 	cmp	r11, r10
     ac0:	aa000031 	bge	b8c <main+0x470>
                            drawBrick[y][x] = false;
                            // bounce ball
                            // if bottom of ball is below box: flip dy
     ac4:	e28d0068 	add	r0, sp, #104	; 0x68
     ac8:	e0802185 	add	r2, r0, r5, lsl #3
     acc:	e0823003 	add	r3, r2, r3
     ad0:	e3a01000 	mov	r1, #0
     ad4:	e5431020 	strb	r1, [r3, #-32]	; 0xffffffe0
                            // if top of ball is above box: flip dy
                            // if completely in middle (y-wise): keep dy direction, change speed
                            if (ball_y+BALL_SIZE > box_bot || ball_y < box_top) {
                                ball_dy *= -1;
                            } else {
     ad8:	e15e000a 	cmp	lr, r10
     adc:	ca000001 	bgt	ae8 <main+0x3cc>
     ae0:	e15b000c 	cmp	r11, r12
     ae4:	aa000001 	bge	af0 <main+0x3d4>
                                ball_dy += (rand()%2)*(ball_dy/abs(ball_dy)); // a number 0,1,2 in direction of dy
     ae8:	e2666000 	rsb	r6, r6, #0
     aec:	ea00000d 	b	b28 <main+0x40c>
                                // if it's too large (>4), halve it
                                if (abs(ball_dy) > 4) {
     af0:	eb0008f2 	bl	2ec0 <rand>
     af4:	e080afa0 	add	r10, r0, r0, lsr #31
     af8:	e20aa001 	and	r10, r10, #1
     afc:	e04aafa0 	sub	r10, r10, r0, lsr #31
     b00:	e1a00006 	mov	r0, r6
     b04:	e0261fc6 	eor	r1, r6, r6, asr #31
     b08:	e0411fc6 	sub	r1, r1, r6, asr #31
     b0c:	eb00087c 	bl	2d04 <__aeabi_idiv>
     b10:	e0266a90 	mla	r6, r0, r10, r6
                                    ball_dy /= 2;
                                }
     b14:	e0263fc6 	eor	r3, r6, r6, asr #31
     b18:	e0433fc6 	sub	r3, r3, r6, asr #31
     b1c:	e3530004 	cmp	r3, #4
                            }
     b20:	c0866fa6 	addgt	r6, r6, r6, lsr #31
     b24:	c1a060c6 	asrgt	r6, r6, #1
                            // if left of ball is left of box: flip dx
                            // if right of ball is right of box: flip dx
                            // if completely in middle (x-ise): keep dx direction
                            if (ball_x+BALL_SIZE > box_right || ball_x < box_left) {
                                ball_dx *= -1;
                            } else {
     b28:	e59d203c 	ldr	r2, [sp, #60]	; 0x3c
     b2c:	e1520004 	cmp	r2, r4
     b30:	ba000001 	blt	b3c <main+0x420>
     b34:	e1580009 	cmp	r8, r9
     b38:	aa000001 	bge	b44 <main+0x428>
                                ball_dx += (rand()%2)*(ball_dx/abs(ball_dx)); // a number 0,1,2 in direction of dy
     b3c:	e2677000 	rsb	r7, r7, #0
     b40:	ea00000d 	b	b7c <main+0x460>
                                // if it's too large (>6), halve it
                                if (abs(ball_dx) > 6) {
     b44:	eb0008dd 	bl	2ec0 <rand>
     b48:	e0804fa0 	add	r4, r0, r0, lsr #31
     b4c:	e2044001 	and	r4, r4, #1
     b50:	e0444fa0 	sub	r4, r4, r0, lsr #31
     b54:	e1a00007 	mov	r0, r7
     b58:	e0271fc7 	eor	r1, r7, r7, asr #31
     b5c:	e0411fc7 	sub	r1, r1, r7, asr #31
     b60:	eb000867 	bl	2d04 <__aeabi_idiv>
     b64:	e0277490 	mla	r7, r0, r4, r7
                                    ball_dx /= 2;
                                }
     b68:	e0273fc7 	eor	r3, r7, r7, asr #31
     b6c:	e0433fc7 	sub	r3, r3, r7, asr #31
     b70:	e3530006 	cmp	r3, #6
                            }
     b74:	c0877fa7 	addgt	r7, r7, r7, lsr #31
     b78:	c1a070c7 	asrgt	r7, r7, #1
                            // THUS, |dx| must be less than BOX_X, |dy| must be less than BOX_Y, I think?
                            // exit, you can only break one box per hit
                            score += 1;
                            break;
                        }
     b7c:	e59d3018 	ldr	r3, [sp, #24]
     b80:	e2833001 	add	r3, r3, #1
     b84:	e58d3018 	str	r3, [sp, #24]
                    }
     b88:	ea000004 	b	ba0 <main+0x484>
        /* Check whether the ball has hit anything */
        // If it's hit a brick, remove the brick
        for(y=0; y<NUM_ROW_OF_BOX; y++) {
            for(x=0; x<NUM_BOX_PER_ROW; x++){
                if(drawBrick[y][x]) {
                    int box_left = MIN_X+PADDING+x*(BOX_X+PADDING); 
     b8c:	e2833001 	add	r3, r3, #1
     b90:	e2822024 	add	r2, r2, #36	; 0x24
     b94:	e2811024 	add	r1, r1, #36	; 0x24
     b98:	e3530008 	cmp	r3, #8
     b9c:	1affffb8 	bne	a84 <main+0x368>

        /* Check whether the ball has hit anything */
        // If it's hit a brick, remove the brick
        for(y=0; y<NUM_ROW_OF_BOX; y++) {
            for(x=0; x<NUM_BOX_PER_ROW; x++){
                if(drawBrick[y][x]) {
     ba0:	e2855001 	add	r5, r5, #1
     ba4:	e59de010 	ldr	lr, [sp, #16]
     ba8:	e28ee010 	add	lr, lr, #16
     bac:	e58de010 	str	lr, [sp, #16]
     bb0:	e3550004 	cmp	r5, #4
     bb4:	0a000007 	beq	bd8 <main+0x4bc>
                    int box_left = MIN_X+PADDING+x*(BOX_X+PADDING); 
                    int box_right = box_left + BOX_X;
                    int box_top = MIN_Y+PADDING+y*(BOX_Y+PADDING);
                    int box_bot = box_top + BOX_Y;
                    if (ball_x+BALL_SIZE >= box_left && ball_x < box_right) {
     bb8:	e59dc010 	ldr	r12, [sp, #16]
void swap(int *n0, int *n1);
int abs(int x);
void plot_pixel(int x, int y, short int line_color);
void wait_for_vsync();

int main(void) {
     bbc:	e28ca00f 	add	r10, r12, #15
     bc0:	e28d1048 	add	r1, sp, #72	; 0x48
     bc4:	e0810185 	add	r0, r1, r5, lsl #3
     bc8:	e3a01033 	mov	r1, #51	; 0x33
     bcc:	e3a02010 	mov	r2, #16
     bd0:	e3a03000 	mov	r3, #0
     bd4:	eaffffaa 	b	a84 <main+0x368>
     bd8:	e59d9044 	ldr	r9, [sp, #68]	; 0x44

        /* Check whether the ball has hit anything */
        // If it's hit a brick, remove the brick
        for(y=0; y<NUM_ROW_OF_BOX; y++) {
            for(x=0; x<NUM_BOX_PER_ROW; x++){
                if(drawBrick[y][x]) {
     bdc:	e1a03006 	mov	r3, r6
     be0:	e1a02007 	mov	r2, r7
     be4:	e59d4018 	ldr	r4, [sp, #24]
            }
        }
        // If hit a side wall, flip dx
        if (ball_x < MIN_X || ball_x+BALL_SIZE >= MAX_X) {
            ball_dx *= -1;
            // add rand() too?
     be8:	e358000e 	cmp	r8, #14
     bec:	da000002 	ble	bfc <main+0x4e0>
     bf0:	e2881006 	add	r1, r8, #6
     bf4:	e3510e13 	cmp	r1, #304	; 0x130
     bf8:	ba000000 	blt	c00 <main+0x4e4>
        }
     bfc:	e2627000 	rsb	r7, r2, #0
        // If hit the top wall or paddle, flip dy
        if (ball_y < MIN_Y || ((ball_y + BALL_SIZE) > PADDLE_POSITION_Y && ball_y < PADDLE_POSITION_Y+PADDLE_Y && ball_x > paddleX && ball_x < paddleX+PADDLE_X)) {
            ball_dy *= -1;
            // add rand() too?
     c00:	e35b0013 	cmp	r11, #19
     c04:	da00000c 	ble	c3c <main+0x520>
     c08:	e28b2006 	add	r2, r11, #6
     c0c:	e35200d2 	cmp	r2, #210	; 0xd2
     c10:	da00000a 	ble	c40 <main+0x524>
     c14:	e1580009 	cmp	r8, r9
     c18:	d3a02000 	movle	r2, #0
     c1c:	c3a02001 	movgt	r2, #1
     c20:	e35b00db 	cmp	r11, #219	; 0xdb
     c24:	c3a02000 	movgt	r2, #0
     c28:	e3520000 	cmp	r2, #0
     c2c:	0a000003 	beq	c40 <main+0x524>
     c30:	e2892040 	add	r2, r9, #64	; 0x40
     c34:	e1580002 	cmp	r8, r2
     c38:	aa000000 	bge	c40 <main+0x524>
        }
     c3c:	e2636000 	rsb	r6, r3, #0
        // If went below paddle & off screen, lose a life && reset
        if (ball_y+BALL_SIZE >= MAX_Y) {
            lives--;
            round_started = false;
     c40:	e28b3006 	add	r3, r11, #6
     c44:	e35300e9 	cmp	r3, #233	; 0xe9
     c48:	da000010 	ble	c90 <main+0x574>
            paddleX = (MAX_X + MIN_X)/2 - PADDLE_X/2;
     c4c:	e59d2014 	ldr	r2, [sp, #20]
     c50:	e2422001 	sub	r2, r2, #1
     c54:	e58d2014 	str	r2, [sp, #20]
            ball_x = paddleX + PADDLE_X/2 - BALL_SIZE/2; // paddleX+PADDLE_X/2 = center of paddle; - BALL_SIZE/2 to get left of ball
            ball_y = PADDLE_POSITION_Y - BALL_SIZE; // PADDLE_POSITION_Y = top of box; + BALL_SIZE to have box sitting on paddle
            ball_dx = rand()%3-1;
            ball_dy = -2; // minus is up
            continue;
     c58:	eb000898 	bl	2ec0 <rand>
     c5c:	e59de030 	ldr	lr, [sp, #48]	; 0x30
     c60:	e0c3e09e 	smull	lr, r3, lr, r0
     c64:	e0433fc0 	sub	r3, r3, r0, asr #31
     c68:	e0833083 	add	r3, r3, r3, lsl #1
     c6c:	e0630000 	rsb	r0, r3, r0
     c70:	e2407001 	sub	r7, r0, #1
        // If went below paddle & off screen, lose a life && reset
        if (ball_y+BALL_SIZE >= MAX_Y) {
            lives--;
            round_started = false;
            paddleX = (MAX_X + MIN_X)/2 - PADDLE_X/2;
            ball_x = paddleX + PADDLE_X/2 - BALL_SIZE/2; // paddleX+PADDLE_X/2 = center of paddle; - BALL_SIZE/2 to get left of ball
     c74:	e3a00000 	mov	r0, #0
     c78:	e58d0020 	str	r0, [sp, #32]
            ball_y = PADDLE_POSITION_Y - BALL_SIZE; // PADDLE_POSITION_Y = top of box; + BALL_SIZE to have box sitting on paddle
            ball_dx = rand()%3-1;
            ball_dy = -2; // minus is up
            continue;
        }
     c7c:	e3e06001 	mvn	r6, #1
            round_started = false;
            paddleX = (MAX_X + MIN_X)/2 - PADDLE_X/2;
            ball_x = paddleX + PADDLE_X/2 - BALL_SIZE/2; // paddleX+PADDLE_X/2 = center of paddle; - BALL_SIZE/2 to get left of ball
            ball_y = PADDLE_POSITION_Y - BALL_SIZE; // PADDLE_POSITION_Y = top of box; + BALL_SIZE to have box sitting on paddle
            ball_dx = rand()%3-1;
            ball_dy = -2; // minus is up
     c80:	e3a0b0cc 	mov	r11, #204	; 0xcc
            lives--;
            round_started = false;
            paddleX = (MAX_X + MIN_X)/2 - PADDLE_X/2;
            ball_x = paddleX + PADDLE_X/2 - BALL_SIZE/2; // paddleX+PADDLE_X/2 = center of paddle; - BALL_SIZE/2 to get left of ball
            ball_y = PADDLE_POSITION_Y - BALL_SIZE; // PADDLE_POSITION_Y = top of box; + BALL_SIZE to have box sitting on paddle
            ball_dx = rand()%3-1;
     c84:	e3a0809c 	mov	r8, #156	; 0x9c
        if (ball_y+BALL_SIZE >= MAX_Y) {
            lives--;
            round_started = false;
            paddleX = (MAX_X + MIN_X)/2 - PADDLE_X/2;
            ball_x = paddleX + PADDLE_X/2 - BALL_SIZE/2; // paddleX+PADDLE_X/2 = center of paddle; - BALL_SIZE/2 to get left of ball
            ball_y = PADDLE_POSITION_Y - BALL_SIZE; // PADDLE_POSITION_Y = top of box; + BALL_SIZE to have box sitting on paddle
     c88:	e3a0907f 	mov	r9, #127	; 0x7f
            ball_dx = rand()%3-1;
            ball_dy = -2; // minus is up
            continue;
        }

     c8c:	eafffef2 	b	85c <main+0x140>
        padLeft = false;
        padRight = false;
        // Set whether moving left or right
        if(keyPress == 0b100){
            padLeft = true;
        } else if(keyPress == 0b001){
     c90:	e59d100c 	ldr	r1, [sp, #12]
     c94:	e6bf3071 	sxth	r3, r1
     c98:	e3530004 	cmp	r3, #4
     c9c:	0a000059 	beq	e08 <main+0x6ec>
            padRight = true;
        }
     ca0:	e3530001 	cmp	r3, #1
        if(padLeft){
            paddleX -=4;
        } else if(padRight){
            paddleX +=4;
        }
        // Don't go too far!
     ca4:	02899004 	addeq	r9, r9, #4
        if(paddleX <= MIN_X){
            paddleX = MIN_X;
        } else if((paddleX+PADDLE_X) >= MAX_X){
     ca8:	e359000f 	cmp	r9, #15
            paddleX = MAX_X-PADDLE_X;
     cac:	d3a0900f 	movle	r9, #15
            paddleX +=4;
        }
        // Don't go too far!
        if(paddleX <= MIN_X){
            paddleX = MIN_X;
        } else if((paddleX+PADDLE_X) >= MAX_X){
     cb0:	da000004 	ble	cc8 <main+0x5ac>
            paddleX = MAX_X-PADDLE_X;
        }
     cb4:	e2892040 	add	r2, r9, #64	; 0x40

     cb8:	e300312f 	movw	r3, #303	; 0x12f
     cbc:	e1520003 	cmp	r2, r3
     cc0:	c3a090f0 	movgt	r9, #240	; 0xf0
     cc4:	eaffffff 	b	cc8 <main+0x5ac>
        /* Draw new screen */
        // Erase old buffer
        clear_screen();

        // draw the score and the lives
     cc8:	ebfffdd3 	bl	41c <clear_screen>
        writeScoreAndLife(score, lives);

        // redraw the boxes and paddle
     ccc:	e1a00004 	mov	r0, r4
     cd0:	e59d1014 	ldr	r1, [sp, #20]
     cd4:	ebfffdfa 	bl	4c4 <writeScoreAndLife>
     cd8:	e59d1038 	ldr	r1, [sp, #56]	; 0x38
void swap(int *n0, int *n1);
int abs(int x);
void plot_pixel(int x, int y, short int line_color);
void wait_for_vsync();

int main(void) {
     cdc:	e3e0000f 	mvn	r0, #15
        if(paddleX <= MIN_X){
            paddleX = MIN_X;
        } else if((paddleX+PADDLE_X) >= MAX_X){
            paddleX = MAX_X-PADDLE_X;
        }

     ce0:	e3e05014 	mvn	r5, #20
     ce4:	e3a04000 	mov	r4, #0
        // TODO: assign paddle & ball here. Or get rid of this? I think it's unnecessary
        for(x=0; x<320; x++){
            for(y=0; y<240; y++){
                if(x<=MIN_X || x>=MAX_X || y<=MIN_Y || y>=MAX_Y){
                    boardStatus[y][x] = 2;
                } else {
     ce8:	e300c11f 	movw	r12, #287	; 0x11f
                    boardStatus[y][x] = 0;
     cec:	e3a0e002 	mov	lr, #2
     cf0:	e59da040 	ldr	r10, [sp, #64]	; 0x40
     cf4:	ea00000e 	b	d34 <main+0x618>
        // TODO: assign paddle & ball here. Or get rid of this? I think it's unnecessary
        for(x=0; x<320; x++){
            for(y=0; y<240; y++){
                if(x<=MIN_X || x>=MAX_X || y<=MIN_Y || y>=MAX_Y){
                    boardStatus[y][x] = 2;
                } else {
     cf8:	e150000c 	cmp	r0, r12
     cfc:	8a000002 	bhi	d0c <main+0x5f0>
     d00:	e35200d4 	cmp	r2, #212	; 0xd4
                    boardStatus[y][x] = 0;
                }
            }
     d04:	97814003 	strls	r4, [r1, r3]
        // TODO: assign paddle & ball here. Or get rid of this? I think it's unnecessary
        for(x=0; x<320; x++){
            for(y=0; y<240; y++){
                if(x<=MIN_X || x>=MAX_X || y<=MIN_Y || y>=MAX_Y){
                    boardStatus[y][x] = 2;
                } else {
     d08:	9a000001 	bls	d14 <main+0x5f8>
                    boardStatus[y][x] = 0;
     d0c:	e781e003 	str	lr, [r1, r3]
     d10:	eaffffff 	b	d14 <main+0x5f8>
     d14:	e2833c05 	add	r3, r3, #1280	; 0x500
     d18:	e2822001 	add	r2, r2, #1
        // redraw the boxes and paddle
        // TODO: assign paddle & ball here. Or get rid of this? I think it's unnecessary
        for(x=0; x<320; x++){
            for(y=0; y<240; y++){
                if(x<=MIN_X || x>=MAX_X || y<=MIN_Y || y>=MAX_Y){
                    boardStatus[y][x] = 2;
     d1c:	e3530a4b 	cmp	r3, #307200	; 0x4b000
     d20:	1afffff4 	bne	cf8 <main+0x5dc>
     d24:	e2811004 	add	r1, r1, #4
     d28:	e2800001 	add	r0, r0, #1

        // redraw the boxes and paddle
        // TODO: assign paddle & ball here. Or get rid of this? I think it's unnecessary
        for(x=0; x<320; x++){
            for(y=0; y<240; y++){
                if(x<=MIN_X || x>=MAX_X || y<=MIN_Y || y>=MAX_Y){
     d2c:	e151000a 	cmp	r1, r10
     d30:	0a000002 	beq	d40 <main+0x624>
        if(paddleX <= MIN_X){
            paddleX = MIN_X;
        } else if((paddleX+PADDLE_X) >= MAX_X){
            paddleX = MAX_X-PADDLE_X;
        }

     d34:	e1a02005 	mov	r2, r5
     d38:	e1a03004 	mov	r3, r4
     d3c:	eaffffed 	b	cf8 <main+0x5dc>
            }
        }

        drawBall(ball_x, ball_y, BALL_SIZE);

        for(y=0; y<NUM_ROW_OF_BOX; y++){
     d40:	e1a00008 	mov	r0, r8
     d44:	e1a0100b 	mov	r1, r11
     d48:	e3a02006 	mov	r2, #6
     d4c:	ebfffd51 	bl	298 <drawBall>
     d50:	e3a02015 	mov	r2, #21
     d54:	e58d200c 	str	r2, [sp, #12]
            for(x=0; x<NUM_BOX_PER_ROW; x++){
                if(drawBrick[y][x]){
     d58:	e3a0a000 	mov	r10, #0
     d5c:	ea000012 	b	dac <main+0x690>
                    plot_boxes(MIN_X + PADDING + x*(BOX_X+PADDING), MIN_Y + PADDING + y*(BOX_Y+PADDING), BOX_X, BOX_Y, BOX_COLOUR);
                }
     d60:	e5f53001 	ldrb	r3, [r5, #1]!
     d64:	e3530000 	cmp	r3, #0
     d68:	0a000006 	beq	d88 <main+0x66c>
            }
     d6c:	e59d302c 	ldr	r3, [sp, #44]	; 0x2c
     d70:	e58d3000 	str	r3, [sp]
     d74:	e1a00004 	mov	r0, r4
     d78:	e59d1010 	ldr	r1, [sp, #16]
     d7c:	e3a02023 	mov	r2, #35	; 0x23
     d80:	e3a0300f 	mov	r3, #15
     d84:	ebfffd66 	bl	324 <plot_boxes>
     d88:	e2844024 	add	r4, r4, #36	; 0x24
        drawBall(ball_x, ball_y, BALL_SIZE);

        for(y=0; y<NUM_ROW_OF_BOX; y++){
            for(x=0; x<NUM_BOX_PER_ROW; x++){
                if(drawBrick[y][x]){
                    plot_boxes(MIN_X + PADDING + x*(BOX_X+PADDING), MIN_Y + PADDING + y*(BOX_Y+PADDING), BOX_X, BOX_Y, BOX_COLOUR);
     d8c:	e3540e13 	cmp	r4, #304	; 0x130
     d90:	1afffff2 	bne	d60 <main+0x644>

        drawBall(ball_x, ball_y, BALL_SIZE);

        for(y=0; y<NUM_ROW_OF_BOX; y++){
            for(x=0; x<NUM_BOX_PER_ROW; x++){
                if(drawBrick[y][x]){
     d94:	e28aa001 	add	r10, r10, #1
     d98:	e59de00c 	ldr	lr, [sp, #12]
     d9c:	e28ee010 	add	lr, lr, #16
     da0:	e58de00c 	str	lr, [sp, #12]
     da4:	e35a0004 	cmp	r10, #4
     da8:	0a000006 	beq	dc8 <main+0x6ac>
                    plot_boxes(MIN_X + PADDING + x*(BOX_X+PADDING), MIN_Y + PADDING + y*(BOX_Y+PADDING), BOX_X, BOX_Y, BOX_COLOUR);
                }
            }
     dac:	e59d000c 	ldr	r0, [sp, #12]
     db0:	e58d0010 	str	r0, [sp, #16]
void swap(int *n0, int *n1);
int abs(int x);
void plot_pixel(int x, int y, short int line_color);
void wait_for_vsync();

int main(void) {
     db4:	e28d1048 	add	r1, sp, #72	; 0x48
     db8:	e081518a 	add	r5, r1, r10, lsl #3
     dbc:	e2455001 	sub	r5, r5, #1
     dc0:	e3a04010 	mov	r4, #16
     dc4:	eaffffe5 	b	d60 <main+0x644>
            }
        }

        plot_boxes(paddleX, PADDLE_POSITION_Y, PADDLE_X, PADDLE_Y, PADDLE_COLOUR);

        wait_for_vsync(); // swap front and back buffers on VGA vertical sync
     dc8:	e304311e 	movw	r3, #16670	; 0x411e
     dcc:	e58d3000 	str	r3, [sp]
     dd0:	e1a00009 	mov	r0, r9
     dd4:	e3a010d2 	mov	r1, #210	; 0xd2
     dd8:	e3a02040 	mov	r2, #64	; 0x40
     ddc:	e3a0300a 	mov	r3, #10
     de0:	ebfffd4f 	bl	324 <plot_boxes>
        pixel_buffer_start = *(pixel_ctrl_ptr + 1); // new back buffer
        
     de4:	ebfffe3f 	bl	6e8 <wait_for_vsync>
        /* Move ball */
     de8:	e3033fff 	movw	r3, #16383	; 0x3fff
     dec:	e34f3f20 	movt	r3, #65312	; 0xff20
     df0:	e5133fdb 	ldr	r3, [r3, #-4059]	; 0xfffff025
     df4:	e59d201c 	ldr	r2, [sp, #28]
     df8:	e5823000 	str	r3, [r2]
        // TODO: Slope & travel
        ball_x = ball_x + ball_dx;//*SIMULATOR_ADJUSTMENT;
        ball_y = ball_y + ball_dy;//*SIMULATOR_ADJUSTMENT;
    }
     dfc:	e0888007 	add	r8, r8, r7
}
     e00:	e08bb006 	add	r11, r11, r6
     e04:	eafffe94 	b	85c <main+0x140>
        }
        // Update paddle location
        if(padLeft){
            paddleX -=4;
        } else if(padRight){
            paddleX +=4;
     e08:	e2499004 	sub	r9, r9, #4
     e0c:	eaffffa5 	b	ca8 <main+0x58c>

00000e10 <SCORELIFE>:
     e10:	03029404 	.word	0x03029404
     e14:	21042104 	.word	0x21042104
     e18:	21042104 	.word	0x21042104
     e1c:	21042104 	.word	0x21042104
     e20:	21042104 	.word	0x21042104
     e24:	21042104 	.word	0x21042104
     e28:	21042104 	.word	0x21042104
     e2c:	21042104 	.word	0x21042104
     e30:	21042104 	.word	0x21042104
     e34:	21042104 	.word	0x21042104
     e38:	21042104 	.word	0x21042104
     e3c:	21042104 	.word	0x21042104
     e40:	21042104 	.word	0x21042104
     e44:	21042104 	.word	0x21042104
     e48:	21042104 	.word	0x21042104
     e4c:	21042104 	.word	0x21042104
     e50:	21042104 	.word	0x21042104
     e54:	21042104 	.word	0x21042104
     e58:	21042104 	.word	0x21042104
     e5c:	21042104 	.word	0x21042104
     e60:	21042104 	.word	0x21042104
     e64:	21042104 	.word	0x21042104
     e68:	21042104 	.word	0x21042104
     e6c:	21042104 	.word	0x21042104
     e70:	21042104 	.word	0x21042104
     e74:	21042104 	.word	0x21042104
     e78:	21042104 	.word	0x21042104
     e7c:	21042104 	.word	0x21042104
     e80:	21042104 	.word	0x21042104
     e84:	21042104 	.word	0x21042104
     e88:	21042104 	.word	0x21042104
     e8c:	21042104 	.word	0x21042104
     e90:	21042104 	.word	0x21042104
     e94:	21042104 	.word	0x21042104
     e98:	21042104 	.word	0x21042104
     e9c:	21042104 	.word	0x21042104
     ea0:	21042104 	.word	0x21042104
     ea4:	21042104 	.word	0x21042104
     ea8:	21042104 	.word	0x21042104
     eac:	21042104 	.word	0x21042104
     eb0:	21042104 	.word	0x21042104
     eb4:	21042104 	.word	0x21042104
     eb8:	21042104 	.word	0x21042104
     ebc:	21042104 	.word	0x21042104
     ec0:	21042104 	.word	0x21042104
     ec4:	21042104 	.word	0x21042104
     ec8:	21042104 	.word	0x21042104
     ecc:	21042104 	.word	0x21042104
     ed0:	21042104 	.word	0x21042104
     ed4:	21042104 	.word	0x21042104
     ed8:	21042104 	.word	0x21042104
     edc:	21042104 	.word	0x21042104
     ee0:	21042104 	.word	0x21042104
     ee4:	21042104 	.word	0x21042104
     ee8:	21042104 	.word	0x21042104
     eec:	21042104 	.word	0x21042104
     ef0:	21042104 	.word	0x21042104
     ef4:	21042104 	.word	0x21042104
     ef8:	21042104 	.word	0x21042104
     efc:	21042104 	.word	0x21042104
     f00:	21042104 	.word	0x21042104
     f04:	21042104 	.word	0x21042104
     f08:	21042104 	.word	0x21042104
     f0c:	21042104 	.word	0x21042104
     f10:	21042104 	.word	0x21042104
     f14:	21042104 	.word	0x21042104
     f18:	21042104 	.word	0x21042104
     f1c:	21042104 	.word	0x21042104
     f20:	21042104 	.word	0x21042104
     f24:	21042104 	.word	0x21042104
     f28:	21042104 	.word	0x21042104
     f2c:	21042104 	.word	0x21042104
     f30:	21042104 	.word	0x21042104
     f34:	21042104 	.word	0x21042104
     f38:	21042104 	.word	0x21042104
     f3c:	21042104 	.word	0x21042104
     f40:	21042104 	.word	0x21042104
     f44:	21042104 	.word	0x21042104
     f48:	21042104 	.word	0x21042104
     f4c:	21042104 	.word	0x21042104
     f50:	21042104 	.word	0x21042104
     f54:	21042104 	.word	0x21042104
     f58:	21042104 	.word	0x21042104
     f5c:	21042104 	.word	0x21042104
     f60:	ffdfffdf 	.word	0xffdfffdf
     f64:	ffdfffdf 	.word	0xffdfffdf
     f68:	2104ffdf 	.word	0x2104ffdf
     f6c:	ffdf2104 	.word	0xffdf2104
     f70:	ffdfffdf 	.word	0xffdfffdf
     f74:	ffdfffdf 	.word	0xffdfffdf
     f78:	2104ffdf 	.word	0x2104ffdf
     f7c:	ffdf2104 	.word	0xffdf2104
     f80:	ffdfffdf 	.word	0xffdfffdf
     f84:	ffdfffdf 	.word	0xffdfffdf
     f88:	2104ffdf 	.word	0x2104ffdf
     f8c:	ffdf2104 	.word	0xffdf2104
     f90:	ffdfffdf 	.word	0xffdfffdf
     f94:	ffdfffdf 	.word	0xffdfffdf
     f98:	2104ffdf 	.word	0x2104ffdf
     f9c:	ffdf2104 	.word	0xffdf2104
     fa0:	ffdfffdf 	.word	0xffdfffdf
     fa4:	ffdfffdf 	.word	0xffdfffdf
     fa8:	2104ffdf 	.word	0x2104ffdf
     fac:	21042104 	.word	0x21042104
     fb0:	21042104 	.word	0x21042104
     fb4:	21042104 	.word	0x21042104
     fb8:	ffdf2104 	.word	0xffdf2104
     fbc:	ffdfffdf 	.word	0xffdfffdf
     fc0:	ffdfffdf 	.word	0xffdfffdf
     fc4:	ffdfffdf 	.word	0xffdfffdf
     fc8:	21042104 	.word	0x21042104
     fcc:	21042104 	.word	0x21042104
     fd0:	21042104 	.word	0x21042104
     fd4:	ffdfffdf 	.word	0xffdfffdf
     fd8:	2104ffdf 	.word	0x2104ffdf
     fdc:	21042104 	.word	0x21042104
     fe0:	21042104 	.word	0x21042104
     fe4:	ffdf2104 	.word	0xffdf2104
     fe8:	ffdfffdf 	.word	0xffdfffdf
     fec:	ffdfffdf 	.word	0xffdfffdf
     ff0:	ffdfffdf 	.word	0xffdfffdf
     ff4:	21042104 	.word	0x21042104
     ff8:	21042104 	.word	0x21042104
     ffc:	ffdfffdf 	.word	0xffdfffdf
    1000:	ffdfffdf 	.word	0xffdfffdf
    1004:	ffdfffdf 	.word	0xffdfffdf
    1008:	2104ffdf 	.word	0x2104ffdf
    100c:	21042104 	.word	0x21042104
    1010:	ffdf2104 	.word	0xffdf2104
    1014:	2104ffdf 	.word	0x2104ffdf
    1018:	21042104 	.word	0x21042104
    101c:	ffdfffdf 	.word	0xffdfffdf
    1020:	21042104 	.word	0x21042104
    1024:	21042104 	.word	0x21042104
    1028:	ffdfffdf 	.word	0xffdfffdf
    102c:	ffdfffdf 	.word	0xffdfffdf
    1030:	ffdfffdf 	.word	0xffdfffdf
    1034:	2104ffdf 	.word	0x2104ffdf
    1038:	21042104 	.word	0x21042104
    103c:	ffdf2104 	.word	0xffdf2104
    1040:	ffdfffdf 	.word	0xffdfffdf
    1044:	ffdfffdf 	.word	0xffdfffdf
    1048:	ffdfffdf 	.word	0xffdfffdf
    104c:	21042104 	.word	0x21042104
    1050:	21042104 	.word	0x21042104
    1054:	ffdfffdf 	.word	0xffdfffdf
    1058:	ffdfffdf 	.word	0xffdfffdf
    105c:	ffdfffdf 	.word	0xffdfffdf
    1060:	2104ffdf 	.word	0x2104ffdf
    1064:	21042104 	.word	0x21042104
    1068:	ffdf2104 	.word	0xffdf2104
    106c:	ffdfffdf 	.word	0xffdfffdf
    1070:	ffdfffdf 	.word	0xffdfffdf
    1074:	ffdfffdf 	.word	0xffdfffdf
    1078:	21042104 	.word	0x21042104
    107c:	21042104 	.word	0x21042104
    1080:	ffdfffdf 	.word	0xffdfffdf
    1084:	ffdfffdf 	.word	0xffdfffdf
    1088:	ffdfffdf 	.word	0xffdfffdf
    108c:	2104ffdf 	.word	0x2104ffdf
    1090:	21042104 	.word	0x21042104
    1094:	21042104 	.word	0x21042104
    1098:	21042104 	.word	0x21042104
    109c:	21042104 	.word	0x21042104
    10a0:	21042104 	.word	0x21042104
    10a4:	21042104 	.word	0x21042104
    10a8:	ffdf2104 	.word	0xffdf2104
    10ac:	ffdfffdf 	.word	0xffdfffdf
    10b0:	ffdfffdf 	.word	0xffdfffdf
    10b4:	21042104 	.word	0x21042104
    10b8:	ffdfffdf 	.word	0xffdfffdf
    10bc:	ffdfffdf 	.word	0xffdfffdf
    10c0:	ffdfffdf 	.word	0xffdfffdf
    10c4:	21042104 	.word	0x21042104
    10c8:	ffdfffdf 	.word	0xffdfffdf
    10cc:	ffdfffdf 	.word	0xffdfffdf
    10d0:	ffdfffdf 	.word	0xffdfffdf
    10d4:	21042104 	.word	0x21042104
    10d8:	ffdfffdf 	.word	0xffdfffdf
    10dc:	ffdfffdf 	.word	0xffdfffdf
    10e0:	ffdfffdf 	.word	0xffdfffdf
    10e4:	21042104 	.word	0x21042104
    10e8:	ffdfffdf 	.word	0xffdfffdf
    10ec:	ffdfffdf 	.word	0xffdfffdf
    10f0:	ffdfffdf 	.word	0xffdfffdf
    10f4:	21042104 	.word	0x21042104
    10f8:	21042104 	.word	0x21042104
    10fc:	21042104 	.word	0x21042104
    1100:	21042104 	.word	0x21042104
    1104:	ffdfffdf 	.word	0xffdfffdf
    1108:	ffdfffdf 	.word	0xffdfffdf
    110c:	ffdfffdf 	.word	0xffdfffdf
    1110:	2104ffdf 	.word	0x2104ffdf
    1114:	21042104 	.word	0x21042104
    1118:	21042104 	.word	0x21042104
    111c:	ffdf2104 	.word	0xffdf2104
    1120:	ffdfffdf 	.word	0xffdfffdf
    1124:	21042104 	.word	0x21042104
    1128:	21042104 	.word	0x21042104
    112c:	21042104 	.word	0x21042104
    1130:	ffdfffdf 	.word	0xffdfffdf
    1134:	ffdfffdf 	.word	0xffdfffdf
    1138:	ffdfffdf 	.word	0xffdfffdf
    113c:	2104ffdf 	.word	0x2104ffdf
    1140:	21042104 	.word	0x21042104
    1144:	ffdf2104 	.word	0xffdf2104
    1148:	ffdfffdf 	.word	0xffdfffdf
    114c:	ffdfffdf 	.word	0xffdfffdf
    1150:	ffdfffdf 	.word	0xffdfffdf
    1154:	21042104 	.word	0x21042104
    1158:	21042104 	.word	0x21042104
    115c:	ffdfffdf 	.word	0xffdfffdf
    1160:	21042104 	.word	0x21042104
    1164:	ffdf2104 	.word	0xffdf2104
    1168:	2104ffdf 	.word	0x2104ffdf
    116c:	21042104 	.word	0x21042104
    1170:	ffdf2104 	.word	0xffdf2104
    1174:	ffdfffdf 	.word	0xffdfffdf
    1178:	ffdfffdf 	.word	0xffdfffdf
    117c:	ffdfffdf 	.word	0xffdfffdf
    1180:	21042104 	.word	0x21042104
    1184:	21042104 	.word	0x21042104
    1188:	ffdfffdf 	.word	0xffdfffdf
    118c:	ffdfffdf 	.word	0xffdfffdf
    1190:	ffdfffdf 	.word	0xffdfffdf
    1194:	2104ffdf 	.word	0x2104ffdf
    1198:	21042104 	.word	0x21042104
    119c:	ffdf2104 	.word	0xffdf2104
    11a0:	ffdfffdf 	.word	0xffdfffdf
    11a4:	ffdfffdf 	.word	0xffdfffdf
    11a8:	ffdfffdf 	.word	0xffdfffdf
    11ac:	21042104 	.word	0x21042104
    11b0:	21042104 	.word	0x21042104
    11b4:	ffdfffdf 	.word	0xffdfffdf
    11b8:	ffdfffdf 	.word	0xffdfffdf
    11bc:	ffdfffdf 	.word	0xffdfffdf
    11c0:	2104ffdf 	.word	0x2104ffdf
    11c4:	21042104 	.word	0x21042104
    11c8:	ffdf2104 	.word	0xffdf2104
    11cc:	ffdfffdf 	.word	0xffdfffdf
    11d0:	ffdfffdf 	.word	0xffdfffdf
    11d4:	ffdfffdf 	.word	0xffdfffdf
    11d8:	21042104 	.word	0x21042104
    11dc:	21042104 	.word	0x21042104
    11e0:	21042104 	.word	0x21042104
    11e4:	21042104 	.word	0x21042104
    11e8:	21042104 	.word	0x21042104
    11ec:	21042104 	.word	0x21042104
    11f0:	21042104 	.word	0x21042104
    11f4:	ffdfffdf 	.word	0xffdfffdf
    11f8:	21042104 	.word	0x21042104
    11fc:	21042104 	.word	0x21042104
    1200:	ffdf2104 	.word	0xffdf2104
    1204:	2104ffdf 	.word	0x2104ffdf
    1208:	21042104 	.word	0x21042104
    120c:	21042104 	.word	0x21042104
    1210:	ffdf2104 	.word	0xffdf2104
    1214:	2104ffdf 	.word	0x2104ffdf
    1218:	ffdf2104 	.word	0xffdf2104
    121c:	2104ffdf 	.word	0x2104ffdf
    1220:	ffdf2104 	.word	0xffdf2104
    1224:	2104ffdf 	.word	0x2104ffdf
    1228:	ffdf2104 	.word	0xffdf2104
    122c:	2104ffdf 	.word	0x2104ffdf
    1230:	ffdf2104 	.word	0xffdf2104
    1234:	2104ffdf 	.word	0x2104ffdf
    1238:	21042104 	.word	0x21042104
    123c:	21042104 	.word	0x21042104
    1240:	21042104 	.word	0x21042104
    1244:	ffdfffdf 	.word	0xffdfffdf
    1248:	21042104 	.word	0x21042104
    124c:	ffdf2104 	.word	0xffdf2104
    1250:	2104ffdf 	.word	0x2104ffdf
    1254:	21042104 	.word	0x21042104
    1258:	ffdfffdf 	.word	0xffdfffdf
    125c:	21042104 	.word	0x21042104
    1260:	21042104 	.word	0x21042104
    1264:	21042104 	.word	0x21042104
    1268:	ffdfffdf 	.word	0xffdfffdf
    126c:	2104ffdf 	.word	0x2104ffdf
    1270:	21042104 	.word	0x21042104
    1274:	21042104 	.word	0x21042104
    1278:	21042104 	.word	0x21042104
    127c:	21042104 	.word	0x21042104
    1280:	21042104 	.word	0x21042104
    1284:	ffdfffdf 	.word	0xffdfffdf
    1288:	21042104 	.word	0x21042104
    128c:	21042104 	.word	0x21042104
    1290:	21042104 	.word	0x21042104
    1294:	21042104 	.word	0x21042104
    1298:	ffdf2104 	.word	0xffdf2104
    129c:	2104ffdf 	.word	0x2104ffdf
    12a0:	21042104 	.word	0x21042104
    12a4:	ffdf2104 	.word	0xffdf2104
    12a8:	2104ffdf 	.word	0x2104ffdf
    12ac:	21042104 	.word	0x21042104
    12b0:	ffdfffdf 	.word	0xffdfffdf
    12b4:	21042104 	.word	0x21042104
    12b8:	21042104 	.word	0x21042104
    12bc:	ffdfffdf 	.word	0xffdfffdf
    12c0:	21042104 	.word	0x21042104
    12c4:	21042104 	.word	0x21042104
    12c8:	21042104 	.word	0x21042104
    12cc:	21042104 	.word	0x21042104
    12d0:	ffdf2104 	.word	0xffdf2104
    12d4:	2104ffdf 	.word	0x2104ffdf
    12d8:	21042104 	.word	0x21042104
    12dc:	21042104 	.word	0x21042104
    12e0:	21042104 	.word	0x21042104
    12e4:	21042104 	.word	0x21042104
    12e8:	21042104 	.word	0x21042104
    12ec:	21042104 	.word	0x21042104
    12f0:	ffdf2104 	.word	0xffdf2104
    12f4:	2104ffdf 	.word	0x2104ffdf
    12f8:	21042104 	.word	0x21042104
    12fc:	ffdf2104 	.word	0xffdf2104
    1300:	2104ffdf 	.word	0x2104ffdf
    1304:	21042104 	.word	0x21042104
    1308:	ffdfffdf 	.word	0xffdfffdf
    130c:	21042104 	.word	0x21042104
    1310:	21042104 	.word	0x21042104
    1314:	ffdfffdf 	.word	0xffdfffdf
    1318:	21042104 	.word	0x21042104
    131c:	ffdf2104 	.word	0xffdf2104
    1320:	2104ffdf 	.word	0x2104ffdf
    1324:	21042104 	.word	0x21042104
    1328:	21042104 	.word	0x21042104
    132c:	21042104 	.word	0x21042104
    1330:	21042104 	.word	0x21042104
    1334:	21042104 	.word	0x21042104
    1338:	21042104 	.word	0x21042104
    133c:	ffdf2104 	.word	0xffdf2104
    1340:	2104ffdf 	.word	0x2104ffdf
    1344:	21042104 	.word	0x21042104
    1348:	21042104 	.word	0x21042104
    134c:	ffdfffdf 	.word	0xffdfffdf
    1350:	21042104 	.word	0x21042104
    1354:	21042104 	.word	0x21042104
    1358:	21042104 	.word	0x21042104
    135c:	ffdfffdf 	.word	0xffdfffdf
    1360:	21042104 	.word	0x21042104
    1364:	ffdfffdf 	.word	0xffdfffdf
    1368:	21042104 	.word	0x21042104
    136c:	ffdfffdf 	.word	0xffdfffdf
    1370:	21042104 	.word	0x21042104
    1374:	ffdfffdf 	.word	0xffdfffdf
    1378:	21042104 	.word	0x21042104
    137c:	ffdfffdf 	.word	0xffdfffdf
    1380:	21042104 	.word	0x21042104
    1384:	21042104 	.word	0x21042104
    1388:	21042104 	.word	0x21042104
    138c:	ffdf2104 	.word	0xffdf2104
    1390:	2104ffdf 	.word	0x2104ffdf
    1394:	21042104 	.word	0x21042104
    1398:	ffdfffdf 	.word	0xffdfffdf
    139c:	21042104 	.word	0x21042104
    13a0:	ffdf2104 	.word	0xffdf2104
    13a4:	2104ffdf 	.word	0x2104ffdf
    13a8:	21042104 	.word	0x21042104
    13ac:	21042104 	.word	0x21042104
    13b0:	ffdf2104 	.word	0xffdf2104
    13b4:	ffdfffdf 	.word	0xffdfffdf
    13b8:	21042104 	.word	0x21042104
    13bc:	21042104 	.word	0x21042104
    13c0:	21042104 	.word	0x21042104
    13c4:	21042104 	.word	0x21042104
    13c8:	21042104 	.word	0x21042104
    13cc:	ffdf2104 	.word	0xffdf2104
    13d0:	2104ffdf 	.word	0x2104ffdf
    13d4:	21042104 	.word	0x21042104
    13d8:	21042104 	.word	0x21042104
    13dc:	21042104 	.word	0x21042104
    13e0:	21042104 	.word	0x21042104
    13e4:	ffdfffdf 	.word	0xffdfffdf
    13e8:	21042104 	.word	0x21042104
    13ec:	21042104 	.word	0x21042104
    13f0:	ffdfffdf 	.word	0xffdfffdf
    13f4:	21042104 	.word	0x21042104
    13f8:	ffdf2104 	.word	0xffdf2104
    13fc:	2104ffdf 	.word	0x2104ffdf
    1400:	21042104 	.word	0x21042104
    1404:	ffdf2104 	.word	0xffdf2104
    1408:	2104ffdf 	.word	0x2104ffdf
    140c:	21042104 	.word	0x21042104
    1410:	21042104 	.word	0x21042104
    1414:	21042104 	.word	0x21042104
    1418:	21042104 	.word	0x21042104
    141c:	ffdfffdf 	.word	0xffdfffdf
    1420:	21042104 	.word	0x21042104
    1424:	21042104 	.word	0x21042104
    1428:	21042104 	.word	0x21042104
    142c:	21042104 	.word	0x21042104
    1430:	21042104 	.word	0x21042104
    1434:	21042104 	.word	0x21042104
    1438:	21042104 	.word	0x21042104
    143c:	ffdfffdf 	.word	0xffdfffdf
    1440:	21042104 	.word	0x21042104
    1444:	21042104 	.word	0x21042104
    1448:	ffdfffdf 	.word	0xffdfffdf
    144c:	21042104 	.word	0x21042104
    1450:	ffdf2104 	.word	0xffdf2104
    1454:	2104ffdf 	.word	0x2104ffdf
    1458:	21042104 	.word	0x21042104
    145c:	ffdf2104 	.word	0xffdf2104
    1460:	2104ffdf 	.word	0x2104ffdf
    1464:	21042104 	.word	0x21042104
    1468:	ffdfffdf 	.word	0xffdfffdf
    146c:	21042104 	.word	0x21042104
    1470:	21042104 	.word	0x21042104
    1474:	21042104 	.word	0x21042104
    1478:	21042104 	.word	0x21042104
    147c:	21042104 	.word	0x21042104
    1480:	21042104 	.word	0x21042104
    1484:	21042104 	.word	0x21042104
    1488:	ffdfffdf 	.word	0xffdfffdf
    148c:	ffdfffdf 	.word	0xffdfffdf
    1490:	2104ffdf 	.word	0x2104ffdf
    1494:	ffdf2104 	.word	0xffdf2104
    1498:	2104ffdf 	.word	0x2104ffdf
    149c:	21042104 	.word	0x21042104
    14a0:	21042104 	.word	0x21042104
    14a4:	ffdf2104 	.word	0xffdf2104
    14a8:	2104ffdf 	.word	0x2104ffdf
    14ac:	ffdf2104 	.word	0xffdf2104
    14b0:	2104ffdf 	.word	0x2104ffdf
    14b4:	ffdf2104 	.word	0xffdf2104
    14b8:	ffdfffdf 	.word	0xffdfffdf
    14bc:	ffdfffdf 	.word	0xffdfffdf
    14c0:	2104ffdf 	.word	0x2104ffdf
    14c4:	ffdf2104 	.word	0xffdf2104
    14c8:	ffdfffdf 	.word	0xffdfffdf
    14cc:	ffdfffdf 	.word	0xffdfffdf
    14d0:	2104ffdf 	.word	0x2104ffdf
    14d4:	21042104 	.word	0x21042104
    14d8:	21042104 	.word	0x21042104
    14dc:	21042104 	.word	0x21042104
    14e0:	ffdf2104 	.word	0xffdf2104
    14e4:	2104ffdf 	.word	0x2104ffdf
    14e8:	21042104 	.word	0x21042104
    14ec:	ffdfffdf 	.word	0xffdfffdf
    14f0:	21042104 	.word	0x21042104
    14f4:	21042104 	.word	0x21042104
    14f8:	21042104 	.word	0x21042104
    14fc:	ffdfffdf 	.word	0xffdfffdf
    1500:	2104ffdf 	.word	0x2104ffdf
    1504:	21042104 	.word	0x21042104
    1508:	21042104 	.word	0x21042104
    150c:	ffdf2104 	.word	0xffdf2104
    1510:	ffdfffdf 	.word	0xffdfffdf
    1514:	ffdfffdf 	.word	0xffdfffdf
    1518:	ffdfffdf 	.word	0xffdfffdf
    151c:	21042104 	.word	0x21042104
    1520:	21042104 	.word	0x21042104
    1524:	ffdfffdf 	.word	0xffdfffdf
    1528:	ffdfffdf 	.word	0xffdfffdf
    152c:	ffdfffdf 	.word	0xffdfffdf
    1530:	2104ffdf 	.word	0x2104ffdf
    1534:	21042104 	.word	0x21042104
    1538:	ffdf2104 	.word	0xffdf2104
    153c:	ffdfffdf 	.word	0xffdfffdf
    1540:	ffdfffdf 	.word	0xffdfffdf
    1544:	ffdfffdf 	.word	0xffdfffdf
    1548:	21042104 	.word	0x21042104
    154c:	21042104 	.word	0x21042104
    1550:	ffdfffdf 	.word	0xffdfffdf
    1554:	ffdfffdf 	.word	0xffdfffdf
    1558:	ffdfffdf 	.word	0xffdfffdf
    155c:	2104ffdf 	.word	0x2104ffdf
    1560:	21042104 	.word	0x21042104
    1564:	ffdf2104 	.word	0xffdf2104
    1568:	ffdfffdf 	.word	0xffdfffdf
    156c:	ffdfffdf 	.word	0xffdfffdf
    1570:	ffdfffdf 	.word	0xffdfffdf
    1574:	21042104 	.word	0x21042104
    1578:	21042104 	.word	0x21042104
    157c:	21042104 	.word	0x21042104
    1580:	21042104 	.word	0x21042104
    1584:	ffdf2104 	.word	0xffdf2104
    1588:	2104ffdf 	.word	0x2104ffdf
    158c:	21042104 	.word	0x21042104
    1590:	ffdf2104 	.word	0xffdf2104
    1594:	ffdfffdf 	.word	0xffdfffdf
    1598:	ffdfffdf 	.word	0xffdfffdf
    159c:	ffdfffdf 	.word	0xffdfffdf
    15a0:	21042104 	.word	0x21042104
    15a4:	21042104 	.word	0x21042104
    15a8:	ffdfffdf 	.word	0xffdfffdf
    15ac:	ffdfffdf 	.word	0xffdfffdf
    15b0:	ffdfffdf 	.word	0xffdfffdf
    15b4:	2104ffdf 	.word	0x2104ffdf
    15b8:	21042104 	.word	0x21042104
    15bc:	21042104 	.word	0x21042104
    15c0:	21042104 	.word	0x21042104
    15c4:	21042104 	.word	0x21042104
    15c8:	21042104 	.word	0x21042104
    15cc:	21042104 	.word	0x21042104
    15d0:	ffdf2104 	.word	0xffdf2104
    15d4:	ffdfffdf 	.word	0xffdfffdf
    15d8:	ffdfffdf 	.word	0xffdfffdf
    15dc:	21042104 	.word	0x21042104
    15e0:	ffdfffdf 	.word	0xffdfffdf
    15e4:	21042104 	.word	0x21042104
    15e8:	21042104 	.word	0x21042104
    15ec:	21042104 	.word	0x21042104
    15f0:	ffdfffdf 	.word	0xffdfffdf
    15f4:	21042104 	.word	0x21042104
    15f8:	ffdfffdf 	.word	0xffdfffdf
    15fc:	21042104 	.word	0x21042104
    1600:	ffdfffdf 	.word	0xffdfffdf
    1604:	ffdfffdf 	.word	0xffdfffdf
    1608:	ffdfffdf 	.word	0xffdfffdf
    160c:	21042104 	.word	0x21042104
    1610:	ffdfffdf 	.word	0xffdfffdf
    1614:	ffdfffdf 	.word	0xffdfffdf
    1618:	ffdfffdf 	.word	0xffdfffdf
    161c:	21042104 	.word	0x21042104
    1620:	21042104 	.word	0x21042104
    1624:	21042104 	.word	0x21042104
    1628:	21042104 	.word	0x21042104
    162c:	ffdfffdf 	.word	0xffdfffdf
    1630:	21042104 	.word	0x21042104
    1634:	ffdf2104 	.word	0xffdf2104
    1638:	2104ffdf 	.word	0x2104ffdf
    163c:	21042104 	.word	0x21042104
    1640:	21042104 	.word	0x21042104
    1644:	ffdf2104 	.word	0xffdf2104
    1648:	ffdfffdf 	.word	0xffdfffdf
    164c:	21042104 	.word	0x21042104
    1650:	21042104 	.word	0x21042104
    1654:	21042104 	.word	0x21042104
    1658:	ffdfffdf 	.word	0xffdfffdf
    165c:	ffdfffdf 	.word	0xffdfffdf
    1660:	ffdfffdf 	.word	0xffdfffdf
    1664:	2104ffdf 	.word	0x2104ffdf
    1668:	21042104 	.word	0x21042104
    166c:	ffdf2104 	.word	0xffdf2104
    1670:	ffdfffdf 	.word	0xffdfffdf
    1674:	ffdfffdf 	.word	0xffdfffdf
    1678:	ffdfffdf 	.word	0xffdfffdf
    167c:	21042104 	.word	0x21042104
    1680:	21042104 	.word	0x21042104
    1684:	ffdfffdf 	.word	0xffdfffdf
    1688:	ffdfffdf 	.word	0xffdfffdf
    168c:	ffdfffdf 	.word	0xffdfffdf
    1690:	2104ffdf 	.word	0x2104ffdf
    1694:	21042104 	.word	0x21042104
    1698:	ffdf2104 	.word	0xffdf2104
    169c:	ffdfffdf 	.word	0xffdfffdf
    16a0:	ffdfffdf 	.word	0xffdfffdf
    16a4:	ffdfffdf 	.word	0xffdfffdf
    16a8:	21042104 	.word	0x21042104
    16ac:	21042104 	.word	0x21042104
    16b0:	ffdfffdf 	.word	0xffdfffdf
    16b4:	ffdfffdf 	.word	0xffdfffdf
    16b8:	ffdfffdf 	.word	0xffdfffdf
    16bc:	2104ffdf 	.word	0x2104ffdf
    16c0:	21042104 	.word	0x21042104
    16c4:	21042104 	.word	0x21042104
    16c8:	21042104 	.word	0x21042104
    16cc:	21042104 	.word	0x21042104
    16d0:	ffdfffdf 	.word	0xffdfffdf
    16d4:	21042104 	.word	0x21042104
    16d8:	21042104 	.word	0x21042104
    16dc:	ffdfffdf 	.word	0xffdfffdf
    16e0:	ffdfffdf 	.word	0xffdfffdf
    16e4:	ffdfffdf 	.word	0xffdfffdf
    16e8:	2104ffdf 	.word	0x2104ffdf
    16ec:	21042104 	.word	0x21042104
    16f0:	ffdf2104 	.word	0xffdf2104
    16f4:	ffdfffdf 	.word	0xffdfffdf
    16f8:	ffdfffdf 	.word	0xffdfffdf
    16fc:	ffdfffdf 	.word	0xffdfffdf
    1700:	21042104 	.word	0x21042104
    1704:	21042104 	.word	0x21042104
    1708:	21042104 	.word	0x21042104
    170c:	21042104 	.word	0x21042104
    1710:	21042104 	.word	0x21042104
    1714:	21042104 	.word	0x21042104
    1718:	21042104 	.word	0x21042104
    171c:	21042104 	.word	0x21042104
    1720:	ffdf2104 	.word	0xffdf2104
    1724:	2104ffdf 	.word	0x2104ffdf
    1728:	ffdf2104 	.word	0xffdf2104
    172c:	2104ffdf 	.word	0x2104ffdf
    1730:	21042104 	.word	0x21042104
    1734:	21042104 	.word	0x21042104
    1738:	ffdf2104 	.word	0xffdf2104
    173c:	2104ffdf 	.word	0x2104ffdf
    1740:	ffdf2104 	.word	0xffdf2104
    1744:	2104ffdf 	.word	0x2104ffdf
    1748:	ffdf2104 	.word	0xffdf2104
    174c:	ffdfffdf 	.word	0xffdfffdf
    1750:	2104ffdf 	.word	0x2104ffdf
    1754:	21042104 	.word	0x21042104
    1758:	ffdf2104 	.word	0xffdf2104
    175c:	2104ffdf 	.word	0x2104ffdf
    1760:	21042104 	.word	0x21042104
    1764:	21042104 	.word	0x21042104
    1768:	21042104 	.word	0x21042104
    176c:	ffdfffdf 	.word	0xffdfffdf
    1770:	21042104 	.word	0x21042104
    1774:	ffdf2104 	.word	0xffdf2104
    1778:	2104ffdf 	.word	0x2104ffdf
    177c:	21042104 	.word	0x21042104
    1780:	ffdfffdf 	.word	0xffdfffdf
    1784:	21042104 	.word	0x21042104
    1788:	21042104 	.word	0x21042104
    178c:	21042104 	.word	0x21042104
    1790:	ffdfffdf 	.word	0xffdfffdf
    1794:	2104ffdf 	.word	0x2104ffdf
    1798:	21042104 	.word	0x21042104
    179c:	21042104 	.word	0x21042104
    17a0:	ffdf2104 	.word	0xffdf2104
    17a4:	2104ffdf 	.word	0x2104ffdf
    17a8:	21042104 	.word	0x21042104
    17ac:	21042104 	.word	0x21042104
    17b0:	21042104 	.word	0x21042104
    17b4:	21042104 	.word	0x21042104
    17b8:	21042104 	.word	0x21042104
    17bc:	21042104 	.word	0x21042104
    17c0:	ffdf2104 	.word	0xffdf2104
    17c4:	2104ffdf 	.word	0x2104ffdf
    17c8:	21042104 	.word	0x21042104
    17cc:	21042104 	.word	0x21042104
    17d0:	21042104 	.word	0x21042104
    17d4:	21042104 	.word	0x21042104
    17d8:	ffdfffdf 	.word	0xffdfffdf
    17dc:	21042104 	.word	0x21042104
    17e0:	21042104 	.word	0x21042104
    17e4:	21042104 	.word	0x21042104
    17e8:	21042104 	.word	0x21042104
    17ec:	ffdf2104 	.word	0xffdf2104
    17f0:	2104ffdf 	.word	0x2104ffdf
    17f4:	21042104 	.word	0x21042104
    17f8:	ffdf2104 	.word	0xffdf2104
    17fc:	2104ffdf 	.word	0x2104ffdf
    1800:	21042104 	.word	0x21042104
    1804:	ffdfffdf 	.word	0xffdfffdf
    1808:	21042104 	.word	0x21042104
    180c:	21042104 	.word	0x21042104
    1810:	21042104 	.word	0x21042104
    1814:	21042104 	.word	0x21042104
    1818:	ffdf2104 	.word	0xffdf2104
    181c:	2104ffdf 	.word	0x2104ffdf
    1820:	21042104 	.word	0x21042104
    1824:	ffdf2104 	.word	0xffdf2104
    1828:	2104ffdf 	.word	0x2104ffdf
    182c:	21042104 	.word	0x21042104
    1830:	ffdfffdf 	.word	0xffdfffdf
    1834:	21042104 	.word	0x21042104
    1838:	21042104 	.word	0x21042104
    183c:	21042104 	.word	0x21042104
    1840:	21042104 	.word	0x21042104
    1844:	ffdf2104 	.word	0xffdf2104
    1848:	2104ffdf 	.word	0x2104ffdf
    184c:	21042104 	.word	0x21042104
    1850:	21042104 	.word	0x21042104
    1854:	21042104 	.word	0x21042104
    1858:	21042104 	.word	0x21042104
    185c:	21042104 	.word	0x21042104
    1860:	21042104 	.word	0x21042104
    1864:	21042104 	.word	0x21042104
    1868:	21042104 	.word	0x21042104
    186c:	ffdfffdf 	.word	0xffdfffdf
    1870:	21042104 	.word	0x21042104
    1874:	ffdfffdf 	.word	0xffdfffdf
    1878:	21042104 	.word	0x21042104
    187c:	21042104 	.word	0x21042104
    1880:	21042104 	.word	0x21042104
    1884:	ffdfffdf 	.word	0xffdfffdf
    1888:	21042104 	.word	0x21042104
    188c:	ffdfffdf 	.word	0xffdfffdf
    1890:	21042104 	.word	0x21042104
    1894:	ffdfffdf 	.word	0xffdfffdf
    1898:	ffdfffdf 	.word	0xffdfffdf
    189c:	2104ffdf 	.word	0x2104ffdf
    18a0:	21042104 	.word	0x21042104
    18a4:	ffdfffdf 	.word	0xffdfffdf
    18a8:	21042104 	.word	0x21042104
    18ac:	21042104 	.word	0x21042104
    18b0:	21042104 	.word	0x21042104
    18b4:	ffdf2104 	.word	0xffdf2104
    18b8:	2104ffdf 	.word	0x2104ffdf
    18bc:	21042104 	.word	0x21042104
    18c0:	ffdfffdf 	.word	0xffdfffdf
    18c4:	21042104 	.word	0x21042104
    18c8:	ffdf2104 	.word	0xffdf2104
    18cc:	2104ffdf 	.word	0x2104ffdf
    18d0:	21042104 	.word	0x21042104
    18d4:	21042104 	.word	0x21042104
    18d8:	ffdf2104 	.word	0xffdf2104
    18dc:	ffdfffdf 	.word	0xffdfffdf
    18e0:	21042104 	.word	0x21042104
    18e4:	21042104 	.word	0x21042104
    18e8:	21042104 	.word	0x21042104
    18ec:	ffdfffdf 	.word	0xffdfffdf
    18f0:	21042104 	.word	0x21042104
    18f4:	21042104 	.word	0x21042104
    18f8:	21042104 	.word	0x21042104
    18fc:	21042104 	.word	0x21042104
    1900:	21042104 	.word	0x21042104
    1904:	21042104 	.word	0x21042104
    1908:	21042104 	.word	0x21042104
    190c:	ffdfffdf 	.word	0xffdfffdf
    1910:	21042104 	.word	0x21042104
    1914:	21042104 	.word	0x21042104
    1918:	21042104 	.word	0x21042104
    191c:	21042104 	.word	0x21042104
    1920:	ffdf2104 	.word	0xffdf2104
    1924:	2104ffdf 	.word	0x2104ffdf
    1928:	21042104 	.word	0x21042104
    192c:	21042104 	.word	0x21042104
    1930:	21042104 	.word	0x21042104
    1934:	21042104 	.word	0x21042104
    1938:	ffdfffdf 	.word	0xffdfffdf
    193c:	21042104 	.word	0x21042104
    1940:	21042104 	.word	0x21042104
    1944:	ffdfffdf 	.word	0xffdfffdf
    1948:	21042104 	.word	0x21042104
    194c:	ffdf2104 	.word	0xffdf2104
    1950:	2104ffdf 	.word	0x2104ffdf
    1954:	21042104 	.word	0x21042104
    1958:	21042104 	.word	0x21042104
    195c:	21042104 	.word	0x21042104
    1960:	21042104 	.word	0x21042104
    1964:	ffdfffdf 	.word	0xffdfffdf
    1968:	21042104 	.word	0x21042104
    196c:	21042104 	.word	0x21042104
    1970:	ffdfffdf 	.word	0xffdfffdf
    1974:	21042104 	.word	0x21042104
    1978:	ffdf2104 	.word	0xffdf2104
    197c:	2104ffdf 	.word	0x2104ffdf
    1980:	21042104 	.word	0x21042104
    1984:	21042104 	.word	0x21042104
    1988:	21042104 	.word	0x21042104
    198c:	21042104 	.word	0x21042104
    1990:	ffdfffdf 	.word	0xffdfffdf
    1994:	21042104 	.word	0x21042104
    1998:	21042104 	.word	0x21042104
    199c:	21042104 	.word	0x21042104
    19a0:	21042104 	.word	0x21042104
    19a4:	21042104 	.word	0x21042104
    19a8:	21042104 	.word	0x21042104
    19ac:	21042104 	.word	0x21042104
    19b0:	ffdfffdf 	.word	0xffdfffdf
    19b4:	ffdfffdf 	.word	0xffdfffdf
    19b8:	2104ffdf 	.word	0x2104ffdf
    19bc:	ffdf2104 	.word	0xffdf2104
    19c0:	ffdfffdf 	.word	0xffdfffdf
    19c4:	ffdfffdf 	.word	0xffdfffdf
    19c8:	2104ffdf 	.word	0x2104ffdf
    19cc:	ffdf2104 	.word	0xffdf2104
    19d0:	ffdfffdf 	.word	0xffdfffdf
    19d4:	ffdfffdf 	.word	0xffdfffdf
    19d8:	2104ffdf 	.word	0x2104ffdf
    19dc:	ffdf2104 	.word	0xffdf2104
    19e0:	2104ffdf 	.word	0x2104ffdf
    19e4:	ffdfffdf 	.word	0xffdfffdf
    19e8:	2104ffdf 	.word	0x2104ffdf
    19ec:	ffdf2104 	.word	0xffdf2104
    19f0:	ffdfffdf 	.word	0xffdfffdf
    19f4:	ffdfffdf 	.word	0xffdfffdf
    19f8:	2104ffdf 	.word	0x2104ffdf
    19fc:	21042104 	.word	0x21042104
    1a00:	21042104 	.word	0x21042104
    1a04:	21042104 	.word	0x21042104
    1a08:	ffdf2104 	.word	0xffdf2104
    1a0c:	ffdfffdf 	.word	0xffdfffdf
    1a10:	ffdfffdf 	.word	0xffdfffdf
    1a14:	ffdfffdf 	.word	0xffdfffdf
    1a18:	21042104 	.word	0x21042104
    1a1c:	21042104 	.word	0x21042104
    1a20:	21042104 	.word	0x21042104
    1a24:	ffdfffdf 	.word	0xffdfffdf
    1a28:	2104ffdf 	.word	0x2104ffdf
    1a2c:	21042104 	.word	0x21042104
    1a30:	21042104 	.word	0x21042104
    1a34:	ffdf2104 	.word	0xffdf2104
    1a38:	ffdfffdf 	.word	0xffdfffdf
    1a3c:	ffdfffdf 	.word	0xffdfffdf
    1a40:	ffdfffdf 	.word	0xffdfffdf
    1a44:	21042104 	.word	0x21042104
    1a48:	21042104 	.word	0x21042104
    1a4c:	ffdfffdf 	.word	0xffdfffdf
    1a50:	ffdfffdf 	.word	0xffdfffdf
    1a54:	ffdfffdf 	.word	0xffdfffdf
    1a58:	2104ffdf 	.word	0x2104ffdf
    1a5c:	21042104 	.word	0x21042104
    1a60:	21042104 	.word	0x21042104
    1a64:	21042104 	.word	0x21042104
    1a68:	21042104 	.word	0x21042104
    1a6c:	ffdfffdf 	.word	0xffdfffdf
    1a70:	21042104 	.word	0x21042104
    1a74:	21042104 	.word	0x21042104
    1a78:	ffdfffdf 	.word	0xffdfffdf
    1a7c:	ffdfffdf 	.word	0xffdfffdf
    1a80:	ffdfffdf 	.word	0xffdfffdf
    1a84:	2104ffdf 	.word	0x2104ffdf
    1a88:	21042104 	.word	0x21042104
    1a8c:	ffdf2104 	.word	0xffdf2104
    1a90:	ffdfffdf 	.word	0xffdfffdf
    1a94:	ffdfffdf 	.word	0xffdfffdf
    1a98:	ffdfffdf 	.word	0xffdfffdf
    1a9c:	21042104 	.word	0x21042104
    1aa0:	21042104 	.word	0x21042104
    1aa4:	21042104 	.word	0x21042104
    1aa8:	21042104 	.word	0x21042104
    1aac:	ffdf2104 	.word	0xffdf2104
    1ab0:	2104ffdf 	.word	0x2104ffdf
    1ab4:	21042104 	.word	0x21042104
    1ab8:	ffdf2104 	.word	0xffdf2104
    1abc:	ffdfffdf 	.word	0xffdfffdf
    1ac0:	ffdfffdf 	.word	0xffdfffdf
    1ac4:	ffdfffdf 	.word	0xffdfffdf
    1ac8:	21042104 	.word	0x21042104
    1acc:	21042104 	.word	0x21042104
    1ad0:	21042104 	.word	0x21042104
    1ad4:	21042104 	.word	0x21042104
    1ad8:	ffdf2104 	.word	0xffdf2104
    1adc:	2104ffdf 	.word	0x2104ffdf
    1ae0:	21042104 	.word	0x21042104
    1ae4:	21042104 	.word	0x21042104
    1ae8:	21042104 	.word	0x21042104
    1aec:	21042104 	.word	0x21042104
    1af0:	21042104 	.word	0x21042104
    1af4:	21042104 	.word	0x21042104
    1af8:	ffdf2104 	.word	0xffdf2104
    1afc:	ffdfffdf 	.word	0xffdfffdf
    1b00:	ffdfffdf 	.word	0xffdfffdf
    1b04:	21042104 	.word	0x21042104
    1b08:	ffdfffdf 	.word	0xffdfffdf
    1b0c:	ffdfffdf 	.word	0xffdfffdf
    1b10:	ffdfffdf 	.word	0xffdfffdf
    1b14:	21042104 	.word	0x21042104
    1b18:	ffdfffdf 	.word	0xffdfffdf
    1b1c:	ffdfffdf 	.word	0xffdfffdf
    1b20:	ffdfffdf 	.word	0xffdfffdf
    1b24:	21042104 	.word	0x21042104
    1b28:	ffdfffdf 	.word	0xffdfffdf
    1b2c:	21042104 	.word	0x21042104
    1b30:	ffdfffdf 	.word	0xffdfffdf
    1b34:	21042104 	.word	0x21042104
    1b38:	ffdfffdf 	.word	0xffdfffdf
    1b3c:	ffdfffdf 	.word	0xffdfffdf
    1b40:	ffdfffdf 	.word	0xffdfffdf
    1b44:	21042104 	.word	0x21042104
    1b48:	21042104 	.word	0x21042104
    1b4c:	21042104 	.word	0x21042104
    1b50:	21042104 	.word	0x21042104
    1b54:	ffdfffdf 	.word	0xffdfffdf
    1b58:	ffdfffdf 	.word	0xffdfffdf
    1b5c:	ffdfffdf 	.word	0xffdfffdf
    1b60:	2104ffdf 	.word	0x2104ffdf
    1b64:	21042104 	.word	0x21042104
    1b68:	21042104 	.word	0x21042104
    1b6c:	ffdf2104 	.word	0xffdf2104
    1b70:	ffdfffdf 	.word	0xffdfffdf
    1b74:	21042104 	.word	0x21042104
    1b78:	21042104 	.word	0x21042104
    1b7c:	21042104 	.word	0x21042104
    1b80:	ffdfffdf 	.word	0xffdfffdf
    1b84:	ffdfffdf 	.word	0xffdfffdf
    1b88:	ffdfffdf 	.word	0xffdfffdf
    1b8c:	2104ffdf 	.word	0x2104ffdf
    1b90:	21042104 	.word	0x21042104
    1b94:	ffdf2104 	.word	0xffdf2104
    1b98:	ffdfffdf 	.word	0xffdfffdf
    1b9c:	ffdfffdf 	.word	0xffdfffdf
    1ba0:	ffdfffdf 	.word	0xffdfffdf
    1ba4:	21042104 	.word	0x21042104
    1ba8:	21042104 	.word	0x21042104
    1bac:	21042104 	.word	0x21042104
    1bb0:	21042104 	.word	0x21042104
    1bb4:	ffdf2104 	.word	0xffdf2104
    1bb8:	2104ffdf 	.word	0x2104ffdf
    1bbc:	21042104 	.word	0x21042104
    1bc0:	ffdf2104 	.word	0xffdf2104
    1bc4:	ffdfffdf 	.word	0xffdfffdf
    1bc8:	ffdfffdf 	.word	0xffdfffdf
    1bcc:	ffdfffdf 	.word	0xffdfffdf
    1bd0:	21042104 	.word	0x21042104
    1bd4:	21042104 	.word	0x21042104
    1bd8:	ffdfffdf 	.word	0xffdfffdf
    1bdc:	ffdfffdf 	.word	0xffdfffdf
    1be0:	ffdfffdf 	.word	0xffdfffdf
    1be4:	2104ffdf 	.word	0x2104ffdf
    1be8:	21042104 	.word	0x21042104
    1bec:	21042104 	.word	0x21042104
    1bf0:	21042104 	.word	0x21042104
    1bf4:	21042104 	.word	0x21042104
    1bf8:	ffdfffdf 	.word	0xffdfffdf
    1bfc:	21042104 	.word	0x21042104
    1c00:	21042104 	.word	0x21042104
    1c04:	ffdfffdf 	.word	0xffdfffdf
    1c08:	ffdfffdf 	.word	0xffdfffdf
    1c0c:	ffdfffdf 	.word	0xffdfffdf
    1c10:	2104ffdf 	.word	0x2104ffdf
    1c14:	21042104 	.word	0x21042104
    1c18:	21042104 	.word	0x21042104
    1c1c:	21042104 	.word	0x21042104
    1c20:	21042104 	.word	0x21042104
    1c24:	ffdfffdf 	.word	0xffdfffdf
    1c28:	21042104 	.word	0x21042104
    1c2c:	21042104 	.word	0x21042104
    1c30:	21042104 	.word	0x21042104
    1c34:	21042104 	.word	0x21042104
    1c38:	21042104 	.word	0x21042104
    1c3c:	21042104 	.word	0x21042104
    1c40:	21042104 	.word	0x21042104
    1c44:	21042104 	.word	0x21042104
    1c48:	21042104 	.word	0x21042104
    1c4c:	21042104 	.word	0x21042104
    1c50:	21042104 	.word	0x21042104
    1c54:	21042104 	.word	0x21042104
    1c58:	21042104 	.word	0x21042104
    1c5c:	21042104 	.word	0x21042104
    1c60:	21042104 	.word	0x21042104
    1c64:	21042104 	.word	0x21042104
    1c68:	21042104 	.word	0x21042104
    1c6c:	21042104 	.word	0x21042104
    1c70:	21042104 	.word	0x21042104
    1c74:	21042104 	.word	0x21042104
    1c78:	21042104 	.word	0x21042104
    1c7c:	21042104 	.word	0x21042104
    1c80:	21042104 	.word	0x21042104
    1c84:	21042104 	.word	0x21042104
    1c88:	21042104 	.word	0x21042104
    1c8c:	21042104 	.word	0x21042104
    1c90:	21042104 	.word	0x21042104
    1c94:	21042104 	.word	0x21042104
    1c98:	21042104 	.word	0x21042104
    1c9c:	21042104 	.word	0x21042104
    1ca0:	21042104 	.word	0x21042104
    1ca4:	21042104 	.word	0x21042104
    1ca8:	21042104 	.word	0x21042104
    1cac:	21042104 	.word	0x21042104
    1cb0:	21042104 	.word	0x21042104
    1cb4:	21042104 	.word	0x21042104
    1cb8:	21042104 	.word	0x21042104
    1cbc:	21042104 	.word	0x21042104
    1cc0:	21042104 	.word	0x21042104
    1cc4:	21042104 	.word	0x21042104
    1cc8:	21042104 	.word	0x21042104
    1ccc:	21042104 	.word	0x21042104
    1cd0:	21042104 	.word	0x21042104
    1cd4:	21042104 	.word	0x21042104
    1cd8:	21042104 	.word	0x21042104
    1cdc:	21042104 	.word	0x21042104
    1ce0:	21042104 	.word	0x21042104
    1ce4:	21042104 	.word	0x21042104
    1ce8:	21042104 	.word	0x21042104
    1cec:	21042104 	.word	0x21042104
    1cf0:	21042104 	.word	0x21042104
    1cf4:	21042104 	.word	0x21042104
    1cf8:	21042104 	.word	0x21042104
    1cfc:	21042104 	.word	0x21042104
    1d00:	21042104 	.word	0x21042104
    1d04:	21042104 	.word	0x21042104
    1d08:	21042104 	.word	0x21042104
    1d0c:	21042104 	.word	0x21042104
    1d10:	21042104 	.word	0x21042104
    1d14:	21042104 	.word	0x21042104
    1d18:	21042104 	.word	0x21042104
    1d1c:	21042104 	.word	0x21042104
    1d20:	21042104 	.word	0x21042104
    1d24:	21042104 	.word	0x21042104
    1d28:	21042104 	.word	0x21042104
    1d2c:	21042104 	.word	0x21042104
    1d30:	21042104 	.word	0x21042104
    1d34:	21042104 	.word	0x21042104
    1d38:	21042104 	.word	0x21042104
    1d3c:	21042104 	.word	0x21042104
    1d40:	21042104 	.word	0x21042104
    1d44:	21042104 	.word	0x21042104
    1d48:	21042104 	.word	0x21042104
    1d4c:	21042104 	.word	0x21042104
    1d50:	21042104 	.word	0x21042104
    1d54:	21042104 	.word	0x21042104
    1d58:	21042104 	.word	0x21042104
    1d5c:	21042104 	.word	0x21042104
    1d60:	21042104 	.word	0x21042104
    1d64:	21042104 	.word	0x21042104
    1d68:	21042104 	.word	0x21042104
    1d6c:	21042104 	.word	0x21042104
    1d70:	21042104 	.word	0x21042104
    1d74:	21042104 	.word	0x21042104
    1d78:	21042104 	.word	0x21042104
    1d7c:	21042104 	.word	0x21042104
    1d80:	21042104 	.word	0x21042104
    1d84:	21042104 	.word	0x21042104
    1d88:	21042104 	.word	0x21042104
    1d8c:	21042104 	.word	0x21042104
    1d90:	21042104 	.word	0x21042104
    1d94:	21042104 	.word	0x21042104
    1d98:	21042104 	.word	0x21042104
    1d9c:	21042104 	.word	0x21042104
    1da0:	21042104 	.word	0x21042104
    1da4:	21042104 	.word	0x21042104
    1da8:	21042104 	.word	0x21042104
    1dac:	21042104 	.word	0x21042104
    1db0:	21042104 	.word	0x21042104
    1db4:	21042104 	.word	0x21042104
    1db8:	21042104 	.word	0x21042104
    1dbc:	21042104 	.word	0x21042104
    1dc0:	21042104 	.word	0x21042104
    1dc4:	21042104 	.word	0x21042104
    1dc8:	21042104 	.word	0x21042104
    1dcc:	21042104 	.word	0x21042104
    1dd0:	21042104 	.word	0x21042104
    1dd4:	21042104 	.word	0x21042104
    1dd8:	21042104 	.word	0x21042104
    1ddc:	21042104 	.word	0x21042104
    1de0:	21042104 	.word	0x21042104
    1de4:	21042104 	.word	0x21042104
    1de8:	21042104 	.word	0x21042104
    1dec:	21042104 	.word	0x21042104
    1df0:	21042104 	.word	0x21042104
    1df4:	21042104 	.word	0x21042104
    1df8:	21042104 	.word	0x21042104
    1dfc:	21042104 	.word	0x21042104
    1e00:	21042104 	.word	0x21042104
    1e04:	21042104 	.word	0x21042104
    1e08:	21042104 	.word	0x21042104
    1e0c:	21042104 	.word	0x21042104
    1e10:	21042104 	.word	0x21042104
    1e14:	21042104 	.word	0x21042104
    1e18:	21042104 	.word	0x21042104
    1e1c:	21042104 	.word	0x21042104
    1e20:	21042104 	.word	0x21042104
    1e24:	21042104 	.word	0x21042104
    1e28:	21042104 	.word	0x21042104
    1e2c:	21042104 	.word	0x21042104
    1e30:	21042104 	.word	0x21042104
    1e34:	21042104 	.word	0x21042104
    1e38:	21042104 	.word	0x21042104
    1e3c:	21042104 	.word	0x21042104
    1e40:	21042104 	.word	0x21042104
    1e44:	21042104 	.word	0x21042104
    1e48:	21042104 	.word	0x21042104
    1e4c:	21042104 	.word	0x21042104
    1e50:	21042104 	.word	0x21042104
    1e54:	21042104 	.word	0x21042104
    1e58:	21042104 	.word	0x21042104
    1e5c:	21042104 	.word	0x21042104
    1e60:	21042104 	.word	0x21042104
    1e64:	21042104 	.word	0x21042104
    1e68:	21042104 	.word	0x21042104
    1e6c:	21042104 	.word	0x21042104
    1e70:	21042104 	.word	0x21042104
    1e74:	21042104 	.word	0x21042104
    1e78:	21042104 	.word	0x21042104
    1e7c:	21042104 	.word	0x21042104
    1e80:	21042104 	.word	0x21042104
    1e84:	21042104 	.word	0x21042104
    1e88:	21042104 	.word	0x21042104
    1e8c:	21042104 	.word	0x21042104
    1e90:	21042104 	.word	0x21042104
    1e94:	21042104 	.word	0x21042104
    1e98:	21042104 	.word	0x21042104
    1e9c:	21042104 	.word	0x21042104
    1ea0:	21042104 	.word	0x21042104
    1ea4:	21042104 	.word	0x21042104
    1ea8:	21042104 	.word	0x21042104
    1eac:	21042104 	.word	0x21042104
    1eb0:	21042104 	.word	0x21042104
    1eb4:	21042104 	.word	0x21042104
    1eb8:	21042104 	.word	0x21042104
    1ebc:	21042104 	.word	0x21042104
    1ec0:	21042104 	.word	0x21042104
    1ec4:	21042104 	.word	0x21042104
    1ec8:	21042104 	.word	0x21042104
    1ecc:	21042104 	.word	0x21042104
    1ed0:	21042104 	.word	0x21042104
    1ed4:	21042104 	.word	0x21042104
    1ed8:	ffdfffdf 	.word	0xffdfffdf
    1edc:	21042104 	.word	0x21042104
    1ee0:	21042104 	.word	0x21042104
    1ee4:	ffdf2104 	.word	0xffdf2104
    1ee8:	ffdfffdf 	.word	0xffdfffdf
    1eec:	ffdfffdf 	.word	0xffdfffdf
    1ef0:	2104ffdf 	.word	0x2104ffdf
    1ef4:	ffdf2104 	.word	0xffdf2104
    1ef8:	2104ffdf 	.word	0x2104ffdf
    1efc:	21042104 	.word	0x21042104
    1f00:	ffdf2104 	.word	0xffdf2104
    1f04:	2104ffdf 	.word	0x2104ffdf
    1f08:	ffdf2104 	.word	0xffdf2104
    1f0c:	ffdfffdf 	.word	0xffdfffdf
    1f10:	ffdfffdf 	.word	0xffdfffdf
    1f14:	2104ffdf 	.word	0x2104ffdf
    1f18:	ffdf2104 	.word	0xffdf2104
    1f1c:	ffdfffdf 	.word	0xffdfffdf
    1f20:	ffdfffdf 	.word	0xffdfffdf
    1f24:	2104ffdf 	.word	0x2104ffdf
    1f28:	21042104 	.word	0x21042104
    1f2c:	21042104 	.word	0x21042104
    1f30:	21042104 	.word	0x21042104
    1f34:	21042104 	.word	0x21042104
    1f38:	e8ece8ec 	.word	0xe8ece8ec
    1f3c:	2104e8ec 	.word	0x2104e8ec
    1f40:	21042104 	.word	0x21042104
    1f44:	e8ece8ec 	.word	0xe8ece8ec
    1f48:	2104e8ec 	.word	0x2104e8ec
    1f4c:	21042104 	.word	0x21042104
    1f50:	21042104 	.word	0x21042104
    1f54:	21042104 	.word	0x21042104
    1f58:	21042104 	.word	0x21042104
    1f5c:	21042104 	.word	0x21042104
    1f60:	21042104 	.word	0x21042104
    1f64:	21042104 	.word	0x21042104
    1f68:	21042104 	.word	0x21042104
    1f6c:	21042104 	.word	0x21042104
    1f70:	21042104 	.word	0x21042104
    1f74:	21042104 	.word	0x21042104
    1f78:	21042104 	.word	0x21042104
    1f7c:	21042104 	.word	0x21042104
    1f80:	21042104 	.word	0x21042104
    1f84:	21042104 	.word	0x21042104
    1f88:	21042104 	.word	0x21042104
    1f8c:	21042104 	.word	0x21042104
    1f90:	21042104 	.word	0x21042104
    1f94:	21042104 	.word	0x21042104
    1f98:	21042104 	.word	0x21042104
    1f9c:	21042104 	.word	0x21042104
    1fa0:	21042104 	.word	0x21042104
    1fa4:	21042104 	.word	0x21042104
    1fa8:	21042104 	.word	0x21042104
    1fac:	21042104 	.word	0x21042104
    1fb0:	21042104 	.word	0x21042104
    1fb4:	21042104 	.word	0x21042104
    1fb8:	21042104 	.word	0x21042104
    1fbc:	21042104 	.word	0x21042104
    1fc0:	21042104 	.word	0x21042104
    1fc4:	21042104 	.word	0x21042104
    1fc8:	21042104 	.word	0x21042104
    1fcc:	21042104 	.word	0x21042104
    1fd0:	21042104 	.word	0x21042104
    1fd4:	21042104 	.word	0x21042104
    1fd8:	21042104 	.word	0x21042104
    1fdc:	21042104 	.word	0x21042104
    1fe0:	21042104 	.word	0x21042104
    1fe4:	21042104 	.word	0x21042104
    1fe8:	21042104 	.word	0x21042104
    1fec:	21042104 	.word	0x21042104
    1ff0:	21042104 	.word	0x21042104
    1ff4:	21042104 	.word	0x21042104
    1ff8:	21042104 	.word	0x21042104
    1ffc:	21042104 	.word	0x21042104
    2000:	21042104 	.word	0x21042104
    2004:	21042104 	.word	0x21042104
    2008:	21042104 	.word	0x21042104
    200c:	21042104 	.word	0x21042104
    2010:	21042104 	.word	0x21042104
    2014:	21042104 	.word	0x21042104
    2018:	21042104 	.word	0x21042104
    201c:	21042104 	.word	0x21042104
    2020:	ffdf2104 	.word	0xffdf2104
    2024:	2104ffdf 	.word	0x2104ffdf
    2028:	21042104 	.word	0x21042104
    202c:	21042104 	.word	0x21042104
    2030:	ffdfffdf 	.word	0xffdfffdf
    2034:	ffdfffdf 	.word	0xffdfffdf
    2038:	ffdfffdf 	.word	0xffdfffdf
    203c:	21042104 	.word	0x21042104
    2040:	ffdfffdf 	.word	0xffdfffdf
    2044:	21042104 	.word	0x21042104
    2048:	21042104 	.word	0x21042104
    204c:	ffdfffdf 	.word	0xffdfffdf
    2050:	21042104 	.word	0x21042104
    2054:	ffdfffdf 	.word	0xffdfffdf
    2058:	ffdfffdf 	.word	0xffdfffdf
    205c:	ffdfffdf 	.word	0xffdfffdf
    2060:	21042104 	.word	0x21042104
    2064:	ffdfffdf 	.word	0xffdfffdf
    2068:	ffdfffdf 	.word	0xffdfffdf
    206c:	ffdfffdf 	.word	0xffdfffdf
    2070:	21042104 	.word	0x21042104
    2074:	21042104 	.word	0x21042104
    2078:	21042104 	.word	0x21042104
    207c:	21042104 	.word	0x21042104
    2080:	e8ece8ec 	.word	0xe8ece8ec
    2084:	e8ece8ec 	.word	0xe8ece8ec
    2088:	2104e8ec 	.word	0x2104e8ec
    208c:	e8ece8ec 	.word	0xe8ece8ec
    2090:	e8ece8ec 	.word	0xe8ece8ec
    2094:	2104e8ec 	.word	0x2104e8ec
    2098:	21042104 	.word	0x21042104
    209c:	21042104 	.word	0x21042104
    20a0:	21042104 	.word	0x21042104
    20a4:	21042104 	.word	0x21042104
    20a8:	21042104 	.word	0x21042104
    20ac:	21042104 	.word	0x21042104
    20b0:	21042104 	.word	0x21042104
    20b4:	21042104 	.word	0x21042104
    20b8:	21042104 	.word	0x21042104
    20bc:	21042104 	.word	0x21042104
    20c0:	21042104 	.word	0x21042104
    20c4:	21042104 	.word	0x21042104
    20c8:	21042104 	.word	0x21042104
    20cc:	21042104 	.word	0x21042104
    20d0:	21042104 	.word	0x21042104
    20d4:	21042104 	.word	0x21042104
    20d8:	21042104 	.word	0x21042104
    20dc:	21042104 	.word	0x21042104
    20e0:	21042104 	.word	0x21042104
    20e4:	21042104 	.word	0x21042104
    20e8:	21042104 	.word	0x21042104
    20ec:	21042104 	.word	0x21042104
    20f0:	21042104 	.word	0x21042104
    20f4:	21042104 	.word	0x21042104
    20f8:	21042104 	.word	0x21042104
    20fc:	21042104 	.word	0x21042104
    2100:	21042104 	.word	0x21042104
    2104:	21042104 	.word	0x21042104
    2108:	21042104 	.word	0x21042104
    210c:	21042104 	.word	0x21042104
    2110:	21042104 	.word	0x21042104
    2114:	21042104 	.word	0x21042104
    2118:	21042104 	.word	0x21042104
    211c:	21042104 	.word	0x21042104
    2120:	21042104 	.word	0x21042104
    2124:	21042104 	.word	0x21042104
    2128:	21042104 	.word	0x21042104
    212c:	21042104 	.word	0x21042104
    2130:	21042104 	.word	0x21042104
    2134:	21042104 	.word	0x21042104
    2138:	21042104 	.word	0x21042104
    213c:	21042104 	.word	0x21042104
    2140:	21042104 	.word	0x21042104
    2144:	21042104 	.word	0x21042104
    2148:	21042104 	.word	0x21042104
    214c:	21042104 	.word	0x21042104
    2150:	21042104 	.word	0x21042104
    2154:	21042104 	.word	0x21042104
    2158:	21042104 	.word	0x21042104
    215c:	21042104 	.word	0x21042104
    2160:	21042104 	.word	0x21042104
    2164:	21042104 	.word	0x21042104
    2168:	21042104 	.word	0x21042104
    216c:	ffdfffdf 	.word	0xffdfffdf
    2170:	21042104 	.word	0x21042104
    2174:	21042104 	.word	0x21042104
    2178:	21042104 	.word	0x21042104
    217c:	ffdf2104 	.word	0xffdf2104
    2180:	2104ffdf 	.word	0x2104ffdf
    2184:	21042104 	.word	0x21042104
    2188:	ffdf2104 	.word	0xffdf2104
    218c:	2104ffdf 	.word	0x2104ffdf
    2190:	21042104 	.word	0x21042104
    2194:	ffdf2104 	.word	0xffdf2104
    2198:	2104ffdf 	.word	0x2104ffdf
    219c:	ffdf2104 	.word	0xffdf2104
    21a0:	2104ffdf 	.word	0x2104ffdf
    21a4:	21042104 	.word	0x21042104
    21a8:	21042104 	.word	0x21042104
    21ac:	ffdf2104 	.word	0xffdf2104
    21b0:	21042104 	.word	0x21042104
    21b4:	21042104 	.word	0x21042104
    21b8:	21042104 	.word	0x21042104
    21bc:	21042104 	.word	0x21042104
    21c0:	ffdfffdf 	.word	0xffdfffdf
    21c4:	21042104 	.word	0x21042104
    21c8:	e8ec2104 	.word	0xe8ec2104
    21cc:	e8ece8ec 	.word	0xe8ece8ec
    21d0:	e8ece8ec 	.word	0xe8ece8ec
    21d4:	e8ece8ec 	.word	0xe8ece8ec
    21d8:	e8ece8ec 	.word	0xe8ece8ec
    21dc:	e8ece8ec 	.word	0xe8ece8ec
    21e0:	21042104 	.word	0x21042104
    21e4:	21042104 	.word	0x21042104
    21e8:	21042104 	.word	0x21042104
    21ec:	21042104 	.word	0x21042104
    21f0:	21042104 	.word	0x21042104
    21f4:	21042104 	.word	0x21042104
    21f8:	21042104 	.word	0x21042104
    21fc:	21042104 	.word	0x21042104
    2200:	21042104 	.word	0x21042104
    2204:	21042104 	.word	0x21042104
    2208:	21042104 	.word	0x21042104
    220c:	21042104 	.word	0x21042104
    2210:	21042104 	.word	0x21042104
    2214:	21042104 	.word	0x21042104
    2218:	21042104 	.word	0x21042104
    221c:	21042104 	.word	0x21042104
    2220:	21042104 	.word	0x21042104
    2224:	21042104 	.word	0x21042104
    2228:	21042104 	.word	0x21042104
    222c:	21042104 	.word	0x21042104
    2230:	21042104 	.word	0x21042104
    2234:	21042104 	.word	0x21042104
    2238:	21042104 	.word	0x21042104
    223c:	21042104 	.word	0x21042104
    2240:	21042104 	.word	0x21042104
    2244:	21042104 	.word	0x21042104
    2248:	21042104 	.word	0x21042104
    224c:	21042104 	.word	0x21042104
    2250:	21042104 	.word	0x21042104
    2254:	21042104 	.word	0x21042104
    2258:	21042104 	.word	0x21042104
    225c:	21042104 	.word	0x21042104
    2260:	21042104 	.word	0x21042104
    2264:	21042104 	.word	0x21042104
    2268:	21042104 	.word	0x21042104
    226c:	21042104 	.word	0x21042104
    2270:	21042104 	.word	0x21042104
    2274:	21042104 	.word	0x21042104
    2278:	21042104 	.word	0x21042104
    227c:	21042104 	.word	0x21042104
    2280:	21042104 	.word	0x21042104
    2284:	21042104 	.word	0x21042104
    2288:	21042104 	.word	0x21042104
    228c:	21042104 	.word	0x21042104
    2290:	21042104 	.word	0x21042104
    2294:	21042104 	.word	0x21042104
    2298:	21042104 	.word	0x21042104
    229c:	21042104 	.word	0x21042104
    22a0:	21042104 	.word	0x21042104
    22a4:	21042104 	.word	0x21042104
    22a8:	21042104 	.word	0x21042104
    22ac:	21042104 	.word	0x21042104
    22b0:	21042104 	.word	0x21042104
    22b4:	ffdf2104 	.word	0xffdf2104
    22b8:	2104ffdf 	.word	0x2104ffdf
    22bc:	21042104 	.word	0x21042104
    22c0:	21042104 	.word	0x21042104
    22c4:	21042104 	.word	0x21042104
    22c8:	ffdfffdf 	.word	0xffdfffdf
    22cc:	21042104 	.word	0x21042104
    22d0:	21042104 	.word	0x21042104
    22d4:	ffdfffdf 	.word	0xffdfffdf
    22d8:	2104ffdf 	.word	0x2104ffdf
    22dc:	ffdf2104 	.word	0xffdf2104
    22e0:	ffdfffdf 	.word	0xffdfffdf
    22e4:	21042104 	.word	0x21042104
    22e8:	ffdfffdf 	.word	0xffdfffdf
    22ec:	21042104 	.word	0x21042104
    22f0:	21042104 	.word	0x21042104
    22f4:	21042104 	.word	0x21042104
    22f8:	2104ffdf 	.word	0x2104ffdf
    22fc:	21042104 	.word	0x21042104
    2300:	21042104 	.word	0x21042104
    2304:	21042104 	.word	0x21042104
    2308:	ffdf2104 	.word	0xffdf2104
    230c:	2104ffdf 	.word	0x2104ffdf
    2310:	21042104 	.word	0x21042104
    2314:	e8ece8ec 	.word	0xe8ece8ec
    2318:	e8ece8ec 	.word	0xe8ece8ec
    231c:	e8ece8ec 	.word	0xe8ece8ec
    2320:	e8ece8ec 	.word	0xe8ece8ec
    2324:	e8ece8ec 	.word	0xe8ece8ec
    2328:	2104e8ec 	.word	0x2104e8ec
    232c:	21042104 	.word	0x21042104
    2330:	21042104 	.word	0x21042104
    2334:	21042104 	.word	0x21042104
    2338:	21042104 	.word	0x21042104
    233c:	21042104 	.word	0x21042104
    2340:	21042104 	.word	0x21042104
    2344:	21042104 	.word	0x21042104
    2348:	21042104 	.word	0x21042104
    234c:	21042104 	.word	0x21042104
    2350:	21042104 	.word	0x21042104
    2354:	21042104 	.word	0x21042104
    2358:	21042104 	.word	0x21042104
    235c:	21042104 	.word	0x21042104
    2360:	21042104 	.word	0x21042104
    2364:	21042104 	.word	0x21042104
    2368:	21042104 	.word	0x21042104
    236c:	21042104 	.word	0x21042104
    2370:	21042104 	.word	0x21042104
    2374:	21042104 	.word	0x21042104
    2378:	21042104 	.word	0x21042104
    237c:	21042104 	.word	0x21042104
    2380:	21042104 	.word	0x21042104
    2384:	21042104 	.word	0x21042104
    2388:	21042104 	.word	0x21042104
    238c:	21042104 	.word	0x21042104
    2390:	21042104 	.word	0x21042104
    2394:	21042104 	.word	0x21042104
    2398:	21042104 	.word	0x21042104
    239c:	21042104 	.word	0x21042104
    23a0:	21042104 	.word	0x21042104
    23a4:	21042104 	.word	0x21042104
    23a8:	21042104 	.word	0x21042104
    23ac:	21042104 	.word	0x21042104
    23b0:	21042104 	.word	0x21042104
    23b4:	21042104 	.word	0x21042104
    23b8:	21042104 	.word	0x21042104
    23bc:	21042104 	.word	0x21042104
    23c0:	21042104 	.word	0x21042104
    23c4:	21042104 	.word	0x21042104
    23c8:	21042104 	.word	0x21042104
    23cc:	21042104 	.word	0x21042104
    23d0:	21042104 	.word	0x21042104
    23d4:	21042104 	.word	0x21042104
    23d8:	21042104 	.word	0x21042104
    23dc:	21042104 	.word	0x21042104
    23e0:	21042104 	.word	0x21042104
    23e4:	21042104 	.word	0x21042104
    23e8:	21042104 	.word	0x21042104
    23ec:	21042104 	.word	0x21042104
    23f0:	21042104 	.word	0x21042104
    23f4:	21042104 	.word	0x21042104
    23f8:	21042104 	.word	0x21042104
    23fc:	21042104 	.word	0x21042104
    2400:	ffdfffdf 	.word	0xffdfffdf
    2404:	21042104 	.word	0x21042104
    2408:	21042104 	.word	0x21042104
    240c:	21042104 	.word	0x21042104
    2410:	ffdf2104 	.word	0xffdf2104
    2414:	2104ffdf 	.word	0x2104ffdf
    2418:	21042104 	.word	0x21042104
    241c:	ffdf2104 	.word	0xffdf2104
    2420:	ffdfffdf 	.word	0xffdfffdf
    2424:	21042104 	.word	0x21042104
    2428:	ffdfffdf 	.word	0xffdfffdf
    242c:	2104ffdf 	.word	0x2104ffdf
    2430:	ffdf2104 	.word	0xffdf2104
    2434:	ffdfffdf 	.word	0xffdfffdf
    2438:	ffdfffdf 	.word	0xffdfffdf
    243c:	2104ffdf 	.word	0x2104ffdf
    2440:	ffdf2104 	.word	0xffdf2104
    2444:	ffdfffdf 	.word	0xffdfffdf
    2448:	ffdfffdf 	.word	0xffdfffdf
    244c:	2104ffdf 	.word	0x2104ffdf
    2450:	21042104 	.word	0x21042104
    2454:	21042104 	.word	0x21042104
    2458:	21042104 	.word	0x21042104
    245c:	e8ec2104 	.word	0xe8ec2104
    2460:	e8ece8ec 	.word	0xe8ece8ec
    2464:	e8ece8ec 	.word	0xe8ece8ec
    2468:	e8ece8ec 	.word	0xe8ece8ec
    246c:	e8ece8ec 	.word	0xe8ece8ec
    2470:	e8ece8ec 	.word	0xe8ece8ec
    2474:	21042104 	.word	0x21042104
    2478:	21042104 	.word	0x21042104
    247c:	21042104 	.word	0x21042104
    2480:	21042104 	.word	0x21042104
    2484:	21042104 	.word	0x21042104
    2488:	21042104 	.word	0x21042104
    248c:	21042104 	.word	0x21042104
    2490:	21042104 	.word	0x21042104
    2494:	21042104 	.word	0x21042104
    2498:	21042104 	.word	0x21042104
    249c:	21042104 	.word	0x21042104
    24a0:	21042104 	.word	0x21042104
    24a4:	21042104 	.word	0x21042104
    24a8:	21042104 	.word	0x21042104
    24ac:	21042104 	.word	0x21042104
    24b0:	21042104 	.word	0x21042104
    24b4:	21042104 	.word	0x21042104
    24b8:	21042104 	.word	0x21042104
    24bc:	21042104 	.word	0x21042104
    24c0:	21042104 	.word	0x21042104
    24c4:	21042104 	.word	0x21042104
    24c8:	21042104 	.word	0x21042104
    24cc:	21042104 	.word	0x21042104
    24d0:	21042104 	.word	0x21042104
    24d4:	21042104 	.word	0x21042104
    24d8:	21042104 	.word	0x21042104
    24dc:	21042104 	.word	0x21042104
    24e0:	21042104 	.word	0x21042104
    24e4:	21042104 	.word	0x21042104
    24e8:	21042104 	.word	0x21042104
    24ec:	21042104 	.word	0x21042104
    24f0:	21042104 	.word	0x21042104
    24f4:	21042104 	.word	0x21042104
    24f8:	21042104 	.word	0x21042104
    24fc:	21042104 	.word	0x21042104
    2500:	21042104 	.word	0x21042104
    2504:	21042104 	.word	0x21042104
    2508:	21042104 	.word	0x21042104
    250c:	21042104 	.word	0x21042104
    2510:	21042104 	.word	0x21042104
    2514:	21042104 	.word	0x21042104
    2518:	21042104 	.word	0x21042104
    251c:	21042104 	.word	0x21042104
    2520:	21042104 	.word	0x21042104
    2524:	21042104 	.word	0x21042104
    2528:	21042104 	.word	0x21042104
    252c:	21042104 	.word	0x21042104
    2530:	21042104 	.word	0x21042104
    2534:	21042104 	.word	0x21042104
    2538:	21042104 	.word	0x21042104
    253c:	21042104 	.word	0x21042104
    2540:	21042104 	.word	0x21042104
    2544:	21042104 	.word	0x21042104
    2548:	ffdf2104 	.word	0xffdf2104
    254c:	2104ffdf 	.word	0x2104ffdf
    2550:	21042104 	.word	0x21042104
    2554:	21042104 	.word	0x21042104
    2558:	21042104 	.word	0x21042104
    255c:	ffdfffdf 	.word	0xffdfffdf
    2560:	21042104 	.word	0x21042104
    2564:	21042104 	.word	0x21042104
    2568:	ffdf2104 	.word	0xffdf2104
    256c:	2104ffdf 	.word	0x2104ffdf
    2570:	ffdf2104 	.word	0xffdf2104
    2574:	2104ffdf 	.word	0x2104ffdf
    2578:	21042104 	.word	0x21042104
    257c:	ffdfffdf 	.word	0xffdfffdf
    2580:	ffdfffdf 	.word	0xffdfffdf
    2584:	ffdfffdf 	.word	0xffdfffdf
    2588:	21042104 	.word	0x21042104
    258c:	ffdfffdf 	.word	0xffdfffdf
    2590:	ffdfffdf 	.word	0xffdfffdf
    2594:	ffdfffdf 	.word	0xffdfffdf
    2598:	21042104 	.word	0x21042104
    259c:	21042104 	.word	0x21042104
    25a0:	21042104 	.word	0x21042104
    25a4:	21042104 	.word	0x21042104
    25a8:	e8ec2104 	.word	0xe8ec2104
    25ac:	e8ece8ec 	.word	0xe8ece8ec
    25b0:	e8ece8ec 	.word	0xe8ece8ec
    25b4:	e8ece8ec 	.word	0xe8ece8ec
    25b8:	e8ece8ec 	.word	0xe8ece8ec
    25bc:	21042104 	.word	0x21042104
    25c0:	21042104 	.word	0x21042104
    25c4:	21042104 	.word	0x21042104
    25c8:	21042104 	.word	0x21042104
    25cc:	21042104 	.word	0x21042104
    25d0:	21042104 	.word	0x21042104
    25d4:	21042104 	.word	0x21042104
    25d8:	21042104 	.word	0x21042104
    25dc:	21042104 	.word	0x21042104
    25e0:	21042104 	.word	0x21042104
    25e4:	21042104 	.word	0x21042104
    25e8:	21042104 	.word	0x21042104
    25ec:	21042104 	.word	0x21042104
    25f0:	21042104 	.word	0x21042104
    25f4:	21042104 	.word	0x21042104
    25f8:	21042104 	.word	0x21042104
    25fc:	21042104 	.word	0x21042104
    2600:	21042104 	.word	0x21042104
    2604:	21042104 	.word	0x21042104
    2608:	21042104 	.word	0x21042104
    260c:	21042104 	.word	0x21042104
    2610:	21042104 	.word	0x21042104
    2614:	21042104 	.word	0x21042104
    2618:	21042104 	.word	0x21042104
    261c:	21042104 	.word	0x21042104
    2620:	21042104 	.word	0x21042104
    2624:	21042104 	.word	0x21042104
    2628:	21042104 	.word	0x21042104
    262c:	21042104 	.word	0x21042104
    2630:	21042104 	.word	0x21042104
    2634:	21042104 	.word	0x21042104
    2638:	21042104 	.word	0x21042104
    263c:	21042104 	.word	0x21042104
    2640:	21042104 	.word	0x21042104
    2644:	21042104 	.word	0x21042104
    2648:	21042104 	.word	0x21042104
    264c:	21042104 	.word	0x21042104
    2650:	21042104 	.word	0x21042104
    2654:	21042104 	.word	0x21042104
    2658:	21042104 	.word	0x21042104
    265c:	21042104 	.word	0x21042104
    2660:	21042104 	.word	0x21042104
    2664:	21042104 	.word	0x21042104
    2668:	21042104 	.word	0x21042104
    266c:	21042104 	.word	0x21042104
    2670:	21042104 	.word	0x21042104
    2674:	21042104 	.word	0x21042104
    2678:	21042104 	.word	0x21042104
    267c:	21042104 	.word	0x21042104
    2680:	21042104 	.word	0x21042104
    2684:	21042104 	.word	0x21042104
    2688:	21042104 	.word	0x21042104
    268c:	21042104 	.word	0x21042104
    2690:	21042104 	.word	0x21042104
    2694:	ffdfffdf 	.word	0xffdfffdf
    2698:	21042104 	.word	0x21042104
    269c:	21042104 	.word	0x21042104
    26a0:	21042104 	.word	0x21042104
    26a4:	ffdf2104 	.word	0xffdf2104
    26a8:	2104ffdf 	.word	0x2104ffdf
    26ac:	21042104 	.word	0x21042104
    26b0:	21042104 	.word	0x21042104
    26b4:	ffdfffdf 	.word	0xffdfffdf
    26b8:	ffdfffdf 	.word	0xffdfffdf
    26bc:	ffdfffdf 	.word	0xffdfffdf
    26c0:	21042104 	.word	0x21042104
    26c4:	ffdf2104 	.word	0xffdf2104
    26c8:	2104ffdf 	.word	0x2104ffdf
    26cc:	21042104 	.word	0x21042104
    26d0:	21042104 	.word	0x21042104
    26d4:	21042104 	.word	0x21042104
    26d8:	21042104 	.word	0x21042104
    26dc:	21042104 	.word	0x21042104
    26e0:	2104ffdf 	.word	0x2104ffdf
    26e4:	21042104 	.word	0x21042104
    26e8:	ffdfffdf 	.word	0xffdfffdf
    26ec:	21042104 	.word	0x21042104
    26f0:	21042104 	.word	0x21042104
    26f4:	e8ec2104 	.word	0xe8ec2104
    26f8:	e8ece8ec 	.word	0xe8ece8ec
    26fc:	e8ece8ec 	.word	0xe8ece8ec
    2700:	e8ece8ec 	.word	0xe8ece8ec
    2704:	21042104 	.word	0x21042104
    2708:	21042104 	.word	0x21042104
    270c:	21042104 	.word	0x21042104
    2710:	21042104 	.word	0x21042104
    2714:	21042104 	.word	0x21042104
    2718:	21042104 	.word	0x21042104
    271c:	21042104 	.word	0x21042104
    2720:	21042104 	.word	0x21042104
    2724:	21042104 	.word	0x21042104
    2728:	21042104 	.word	0x21042104
    272c:	21042104 	.word	0x21042104
    2730:	21042104 	.word	0x21042104
    2734:	21042104 	.word	0x21042104
    2738:	21042104 	.word	0x21042104
    273c:	21042104 	.word	0x21042104
    2740:	21042104 	.word	0x21042104
    2744:	21042104 	.word	0x21042104
    2748:	21042104 	.word	0x21042104
    274c:	21042104 	.word	0x21042104
    2750:	21042104 	.word	0x21042104
    2754:	21042104 	.word	0x21042104
    2758:	21042104 	.word	0x21042104
    275c:	21042104 	.word	0x21042104
    2760:	21042104 	.word	0x21042104
    2764:	21042104 	.word	0x21042104
    2768:	21042104 	.word	0x21042104
    276c:	21042104 	.word	0x21042104
    2770:	21042104 	.word	0x21042104
    2774:	21042104 	.word	0x21042104
    2778:	21042104 	.word	0x21042104
    277c:	21042104 	.word	0x21042104
    2780:	21042104 	.word	0x21042104
    2784:	21042104 	.word	0x21042104
    2788:	21042104 	.word	0x21042104
    278c:	21042104 	.word	0x21042104
    2790:	21042104 	.word	0x21042104
    2794:	21042104 	.word	0x21042104
    2798:	21042104 	.word	0x21042104
    279c:	21042104 	.word	0x21042104
    27a0:	21042104 	.word	0x21042104
    27a4:	21042104 	.word	0x21042104
    27a8:	21042104 	.word	0x21042104
    27ac:	21042104 	.word	0x21042104
    27b0:	21042104 	.word	0x21042104
    27b4:	21042104 	.word	0x21042104
    27b8:	21042104 	.word	0x21042104
    27bc:	21042104 	.word	0x21042104
    27c0:	21042104 	.word	0x21042104
    27c4:	21042104 	.word	0x21042104
    27c8:	21042104 	.word	0x21042104
    27cc:	21042104 	.word	0x21042104
    27d0:	21042104 	.word	0x21042104
    27d4:	21042104 	.word	0x21042104
    27d8:	21042104 	.word	0x21042104
    27dc:	ffdf2104 	.word	0xffdf2104
    27e0:	2104ffdf 	.word	0x2104ffdf
    27e4:	21042104 	.word	0x21042104
    27e8:	21042104 	.word	0x21042104
    27ec:	21042104 	.word	0x21042104
    27f0:	ffdfffdf 	.word	0xffdfffdf
    27f4:	21042104 	.word	0x21042104
    27f8:	21042104 	.word	0x21042104
    27fc:	ffdf2104 	.word	0xffdf2104
    2800:	ffdfffdf 	.word	0xffdfffdf
    2804:	ffdfffdf 	.word	0xffdfffdf
    2808:	2104ffdf 	.word	0x2104ffdf
    280c:	21042104 	.word	0x21042104
    2810:	ffdfffdf 	.word	0xffdfffdf
    2814:	21042104 	.word	0x21042104
    2818:	21042104 	.word	0x21042104
    281c:	21042104 	.word	0x21042104
    2820:	21042104 	.word	0x21042104
    2824:	21042104 	.word	0x21042104
    2828:	ffdf2104 	.word	0xffdf2104
    282c:	21042104 	.word	0x21042104
    2830:	ffdf2104 	.word	0xffdf2104
    2834:	2104ffdf 	.word	0x2104ffdf
    2838:	21042104 	.word	0x21042104
    283c:	21042104 	.word	0x21042104
    2840:	e8ece8ec 	.word	0xe8ece8ec
    2844:	e8ece8ec 	.word	0xe8ece8ec
    2848:	e8ece8ec 	.word	0xe8ece8ec
    284c:	2104e8ec 	.word	0x2104e8ec
    2850:	21042104 	.word	0x21042104
    2854:	21042104 	.word	0x21042104
    2858:	21042104 	.word	0x21042104
    285c:	21042104 	.word	0x21042104
    2860:	21042104 	.word	0x21042104
    2864:	21042104 	.word	0x21042104
    2868:	21042104 	.word	0x21042104
    286c:	21042104 	.word	0x21042104
    2870:	21042104 	.word	0x21042104
    2874:	21042104 	.word	0x21042104
    2878:	21042104 	.word	0x21042104
    287c:	21042104 	.word	0x21042104
    2880:	21042104 	.word	0x21042104
    2884:	21042104 	.word	0x21042104
    2888:	21042104 	.word	0x21042104
    288c:	21042104 	.word	0x21042104
    2890:	21042104 	.word	0x21042104
    2894:	21042104 	.word	0x21042104
    2898:	21042104 	.word	0x21042104
    289c:	21042104 	.word	0x21042104
    28a0:	21042104 	.word	0x21042104
    28a4:	21042104 	.word	0x21042104
    28a8:	21042104 	.word	0x21042104
    28ac:	21042104 	.word	0x21042104
    28b0:	21042104 	.word	0x21042104
    28b4:	21042104 	.word	0x21042104
    28b8:	21042104 	.word	0x21042104
    28bc:	21042104 	.word	0x21042104
    28c0:	21042104 	.word	0x21042104
    28c4:	21042104 	.word	0x21042104
    28c8:	21042104 	.word	0x21042104
    28cc:	21042104 	.word	0x21042104
    28d0:	21042104 	.word	0x21042104
    28d4:	21042104 	.word	0x21042104
    28d8:	21042104 	.word	0x21042104
    28dc:	21042104 	.word	0x21042104
    28e0:	21042104 	.word	0x21042104
    28e4:	21042104 	.word	0x21042104
    28e8:	21042104 	.word	0x21042104
    28ec:	21042104 	.word	0x21042104
    28f0:	21042104 	.word	0x21042104
    28f4:	21042104 	.word	0x21042104
    28f8:	21042104 	.word	0x21042104
    28fc:	21042104 	.word	0x21042104
    2900:	21042104 	.word	0x21042104
    2904:	21042104 	.word	0x21042104
    2908:	21042104 	.word	0x21042104
    290c:	21042104 	.word	0x21042104
    2910:	21042104 	.word	0x21042104
    2914:	21042104 	.word	0x21042104
    2918:	21042104 	.word	0x21042104
    291c:	21042104 	.word	0x21042104
    2920:	21042104 	.word	0x21042104
    2924:	21042104 	.word	0x21042104
    2928:	ffdfffdf 	.word	0xffdfffdf
    292c:	ffdfffdf 	.word	0xffdfffdf
    2930:	2104ffdf 	.word	0x2104ffdf
    2934:	ffdf2104 	.word	0xffdf2104
    2938:	ffdfffdf 	.word	0xffdfffdf
    293c:	ffdfffdf 	.word	0xffdfffdf
    2940:	2104ffdf 	.word	0x2104ffdf
    2944:	21042104 	.word	0x21042104
    2948:	21042104 	.word	0x21042104
    294c:	ffdfffdf 	.word	0xffdfffdf
    2950:	21042104 	.word	0x21042104
    2954:	21042104 	.word	0x21042104
    2958:	ffdf2104 	.word	0xffdf2104
    295c:	ffdfffdf 	.word	0xffdfffdf
    2960:	ffdfffdf 	.word	0xffdfffdf
    2964:	2104ffdf 	.word	0x2104ffdf
    2968:	ffdf2104 	.word	0xffdf2104
    296c:	ffdfffdf 	.word	0xffdfffdf
    2970:	ffdfffdf 	.word	0xffdfffdf
    2974:	2104ffdf 	.word	0x2104ffdf
    2978:	21042104 	.word	0x21042104
    297c:	21042104 	.word	0x21042104
    2980:	21042104 	.word	0x21042104
    2984:	21042104 	.word	0x21042104
    2988:	21042104 	.word	0x21042104
    298c:	e8ece8ec 	.word	0xe8ece8ec
    2990:	e8ece8ec 	.word	0xe8ece8ec
    2994:	2104e8ec 	.word	0x2104e8ec
    2998:	21042104 	.word	0x21042104
    299c:	21042104 	.word	0x21042104
    29a0:	21042104 	.word	0x21042104
    29a4:	21042104 	.word	0x21042104
    29a8:	21042104 	.word	0x21042104
    29ac:	21042104 	.word	0x21042104
    29b0:	21042104 	.word	0x21042104
    29b4:	21042104 	.word	0x21042104
    29b8:	21042104 	.word	0x21042104
    29bc:	21042104 	.word	0x21042104
    29c0:	21042104 	.word	0x21042104
    29c4:	21042104 	.word	0x21042104
    29c8:	21042104 	.word	0x21042104
    29cc:	21042104 	.word	0x21042104
    29d0:	21042104 	.word	0x21042104
    29d4:	21042104 	.word	0x21042104
    29d8:	21042104 	.word	0x21042104
    29dc:	21042104 	.word	0x21042104
    29e0:	21042104 	.word	0x21042104
    29e4:	21042104 	.word	0x21042104
    29e8:	21042104 	.word	0x21042104
    29ec:	21042104 	.word	0x21042104
    29f0:	21042104 	.word	0x21042104
    29f4:	21042104 	.word	0x21042104
    29f8:	21042104 	.word	0x21042104
    29fc:	21042104 	.word	0x21042104
    2a00:	21042104 	.word	0x21042104
    2a04:	21042104 	.word	0x21042104
    2a08:	21042104 	.word	0x21042104
    2a0c:	21042104 	.word	0x21042104
    2a10:	21042104 	.word	0x21042104
    2a14:	21042104 	.word	0x21042104
    2a18:	21042104 	.word	0x21042104
    2a1c:	21042104 	.word	0x21042104
    2a20:	21042104 	.word	0x21042104
    2a24:	21042104 	.word	0x21042104
    2a28:	21042104 	.word	0x21042104
    2a2c:	21042104 	.word	0x21042104
    2a30:	21042104 	.word	0x21042104
    2a34:	21042104 	.word	0x21042104
    2a38:	21042104 	.word	0x21042104
    2a3c:	21042104 	.word	0x21042104
    2a40:	21042104 	.word	0x21042104
    2a44:	21042104 	.word	0x21042104
    2a48:	21042104 	.word	0x21042104
    2a4c:	21042104 	.word	0x21042104
    2a50:	21042104 	.word	0x21042104
    2a54:	21042104 	.word	0x21042104
    2a58:	21042104 	.word	0x21042104
    2a5c:	21042104 	.word	0x21042104
    2a60:	21042104 	.word	0x21042104
    2a64:	21042104 	.word	0x21042104
    2a68:	21042104 	.word	0x21042104
    2a6c:	21042104 	.word	0x21042104
    2a70:	ffdf2104 	.word	0xffdf2104
    2a74:	ffdfffdf 	.word	0xffdfffdf
    2a78:	ffdfffdf 	.word	0xffdfffdf
    2a7c:	21042104 	.word	0x21042104
    2a80:	ffdfffdf 	.word	0xffdfffdf
    2a84:	ffdfffdf 	.word	0xffdfffdf
    2a88:	ffdfffdf 	.word	0xffdfffdf
    2a8c:	21042104 	.word	0x21042104
    2a90:	21042104 	.word	0x21042104
    2a94:	ffdf2104 	.word	0xffdf2104
    2a98:	2104ffdf 	.word	0x2104ffdf
    2a9c:	21042104 	.word	0x21042104
    2aa0:	21042104 	.word	0x21042104
    2aa4:	ffdfffdf 	.word	0xffdfffdf
    2aa8:	ffdfffdf 	.word	0xffdfffdf
    2aac:	ffdfffdf 	.word	0xffdfffdf
    2ab0:	21042104 	.word	0x21042104
    2ab4:	ffdfffdf 	.word	0xffdfffdf
    2ab8:	ffdfffdf 	.word	0xffdfffdf
    2abc:	ffdfffdf 	.word	0xffdfffdf
    2ac0:	21042104 	.word	0x21042104
    2ac4:	21042104 	.word	0x21042104
    2ac8:	21042104 	.word	0x21042104
    2acc:	21042104 	.word	0x21042104
    2ad0:	21042104 	.word	0x21042104
    2ad4:	21042104 	.word	0x21042104
    2ad8:	e8ece8ec 	.word	0xe8ece8ec
    2adc:	2104e8ec 	.word	0x2104e8ec
    2ae0:	21042104 	.word	0x21042104
    2ae4:	21042104 	.word	0x21042104
    2ae8:	21042104 	.word	0x21042104
    2aec:	21042104 	.word	0x21042104
    2af0:	21042104 	.word	0x21042104
    2af4:	21042104 	.word	0x21042104
    2af8:	21042104 	.word	0x21042104
    2afc:	21042104 	.word	0x21042104
    2b00:	21042104 	.word	0x21042104
    2b04:	21042104 	.word	0x21042104
    2b08:	21042104 	.word	0x21042104
    2b0c:	21042104 	.word	0x21042104
    2b10:	21042104 	.word	0x21042104
    2b14:	21042104 	.word	0x21042104
    2b18:	21042104 	.word	0x21042104
    2b1c:	21042104 	.word	0x21042104
    2b20:	21042104 	.word	0x21042104
    2b24:	21042104 	.word	0x21042104
    2b28:	21042104 	.word	0x21042104
    2b2c:	21042104 	.word	0x21042104
    2b30:	21042104 	.word	0x21042104
    2b34:	21042104 	.word	0x21042104
    2b38:	21042104 	.word	0x21042104
    2b3c:	21042104 	.word	0x21042104
    2b40:	21042104 	.word	0x21042104
    2b44:	21042104 	.word	0x21042104
    2b48:	21042104 	.word	0x21042104
    2b4c:	21042104 	.word	0x21042104
    2b50:	21042104 	.word	0x21042104
    2b54:	21042104 	.word	0x21042104
    2b58:	21042104 	.word	0x21042104
    2b5c:	21042104 	.word	0x21042104
    2b60:	21042104 	.word	0x21042104
    2b64:	21042104 	.word	0x21042104
    2b68:	21042104 	.word	0x21042104
    2b6c:	21042104 	.word	0x21042104
    2b70:	21042104 	.word	0x21042104
    2b74:	21042104 	.word	0x21042104
    2b78:	21042104 	.word	0x21042104
    2b7c:	21042104 	.word	0x21042104
    2b80:	21042104 	.word	0x21042104
    2b84:	21042104 	.word	0x21042104
    2b88:	21042104 	.word	0x21042104
    2b8c:	21042104 	.word	0x21042104
    2b90:	21042104 	.word	0x21042104
    2b94:	21042104 	.word	0x21042104
    2b98:	21042104 	.word	0x21042104
    2b9c:	21042104 	.word	0x21042104
    2ba0:	21042104 	.word	0x21042104
    2ba4:	21042104 	.word	0x21042104
    2ba8:	21042104 	.word	0x21042104
    2bac:	21042104 	.word	0x21042104
    2bb0:	21042104 	.word	0x21042104
    2bb4:	21042104 	.word	0x21042104
    2bb8:	21042104 	.word	0x21042104
    2bbc:	21042104 	.word	0x21042104
    2bc0:	21042104 	.word	0x21042104
    2bc4:	21042104 	.word	0x21042104
    2bc8:	21042104 	.word	0x21042104
    2bcc:	21042104 	.word	0x21042104
    2bd0:	21042104 	.word	0x21042104
    2bd4:	21042104 	.word	0x21042104
    2bd8:	21042104 	.word	0x21042104
    2bdc:	21042104 	.word	0x21042104
    2be0:	21042104 	.word	0x21042104
    2be4:	21042104 	.word	0x21042104
    2be8:	21042104 	.word	0x21042104
    2bec:	21042104 	.word	0x21042104
    2bf0:	21042104 	.word	0x21042104
    2bf4:	21042104 	.word	0x21042104
    2bf8:	21042104 	.word	0x21042104
    2bfc:	21042104 	.word	0x21042104
    2c00:	21042104 	.word	0x21042104
    2c04:	21042104 	.word	0x21042104
    2c08:	21042104 	.word	0x21042104
    2c0c:	21042104 	.word	0x21042104
    2c10:	21042104 	.word	0x21042104
    2c14:	21042104 	.word	0x21042104
    2c18:	21042104 	.word	0x21042104
    2c1c:	21042104 	.word	0x21042104
    2c20:	21042104 	.word	0x21042104
    2c24:	21042104 	.word	0x21042104
    2c28:	21042104 	.word	0x21042104
    2c2c:	21042104 	.word	0x21042104
    2c30:	21042104 	.word	0x21042104
    2c34:	21042104 	.word	0x21042104
    2c38:	21042104 	.word	0x21042104
    2c3c:	21042104 	.word	0x21042104
    2c40:	21042104 	.word	0x21042104
    2c44:	21042104 	.word	0x21042104
    2c48:	21042104 	.word	0x21042104
    2c4c:	21042104 	.word	0x21042104
    2c50:	21042104 	.word	0x21042104
    2c54:	21042104 	.word	0x21042104
    2c58:	21042104 	.word	0x21042104
    2c5c:	21042104 	.word	0x21042104
    2c60:	21042104 	.word	0x21042104
    2c64:	21042104 	.word	0x21042104
    2c68:	21042104 	.word	0x21042104
    2c6c:	21042104 	.word	0x21042104
    2c70:	21042104 	.word	0x21042104
    2c74:	21042104 	.word	0x21042104
    2c78:	21042104 	.word	0x21042104
    2c7c:	21042104 	.word	0x21042104
    2c80:	21042104 	.word	0x21042104
    2c84:	21042104 	.word	0x21042104
    2c88:	21042104 	.word	0x21042104
    2c8c:	21042104 	.word	0x21042104
    2c90:	21042104 	.word	0x21042104
    2c94:	21042104 	.word	0x21042104
    2c98:	21042104 	.word	0x21042104
    2c9c:	21042104 	.word	0x21042104
    2ca0:	21042104 	.word	0x21042104
    2ca4:	21042104 	.word	0x21042104
    2ca8:	21042104 	.word	0x21042104
    2cac:	21042104 	.word	0x21042104
    2cb0:	21042104 	.word	0x21042104
    2cb4:	21042104 	.word	0x21042104
    2cb8:	21042104 	.word	0x21042104
    2cbc:	21042104 	.word	0x21042104
    2cc0:	21042104 	.word	0x21042104
    2cc4:	21042104 	.word	0x21042104
    2cc8:	21042104 	.word	0x21042104
    2ccc:	21042104 	.word	0x21042104
    2cd0:	21042104 	.word	0x21042104
    2cd4:	21042104 	.word	0x21042104
    2cd8:	21042104 	.word	0x21042104
    2cdc:	21042104 	.word	0x21042104
    2ce0:	21042104 	.word	0x21042104
    2ce4:	21042104 	.word	0x21042104
    2ce8:	21042104 	.word	0x21042104
    2cec:	21042104 	.word	0x21042104
    2cf0:	21042104 	.word	0x21042104
    2cf4:	21042104 	.word	0x21042104
    2cf8:	21042104 	.word	0x21042104
    2cfc:	21042104 	.word	0x21042104
    2d00:	21042104 	.word	0x21042104

00002d04 <__aeabi_idiv>:
    2d04:	e3510000 	cmp	r1, #0
    2d08:	0a000043 	beq	2e1c <.divsi3_skip_div0_test+0x110>

00002d0c <.divsi3_skip_div0_test>:
    2d0c:	e020c001 	eor	r12, r0, r1
    2d10:	42611000 	rsbmi	r1, r1, #0
    2d14:	e2512001 	subs	r2, r1, #1
    2d18:	0a000027 	beq	2dbc <.divsi3_skip_div0_test+0xb0>
    2d1c:	e1b03000 	movs	r3, r0
    2d20:	42603000 	rsbmi	r3, r0, #0
    2d24:	e1530001 	cmp	r3, r1
    2d28:	9a000026 	bls	2dc8 <.divsi3_skip_div0_test+0xbc>
    2d2c:	e1110002 	tst	r1, r2
    2d30:	0a000028 	beq	2dd8 <.divsi3_skip_div0_test+0xcc>
    2d34:	e311020e 	tst	r1, #-536870912	; 0xe0000000
    2d38:	01a01181 	lsleq	r1, r1, #3
    2d3c:	03a02008 	moveq	r2, #8
    2d40:	13a02001 	movne	r2, #1
    2d44:	e3510201 	cmp	r1, #268435456	; 0x10000000
    2d48:	31510003 	cmpcc	r1, r3
    2d4c:	31a01201 	lslcc	r1, r1, #4
    2d50:	31a02202 	lslcc	r2, r2, #4
    2d54:	3afffffa 	bcc	2d44 <.divsi3_skip_div0_test+0x38>
    2d58:	e3510102 	cmp	r1, #-2147483648	; 0x80000000
    2d5c:	31510003 	cmpcc	r1, r3
    2d60:	31a01081 	lslcc	r1, r1, #1
    2d64:	31a02082 	lslcc	r2, r2, #1
    2d68:	3afffffa 	bcc	2d58 <.divsi3_skip_div0_test+0x4c>
    2d6c:	e3a00000 	mov	r0, #0
    2d70:	e1530001 	cmp	r3, r1
    2d74:	20433001 	subcs	r3, r3, r1
    2d78:	21800002 	orrcs	r0, r0, r2
    2d7c:	e15300a1 	cmp	r3, r1, lsr #1
    2d80:	204330a1 	subcs	r3, r3, r1, lsr #1
    2d84:	218000a2 	orrcs	r0, r0, r2, lsr #1
    2d88:	e1530121 	cmp	r3, r1, lsr #2
    2d8c:	20433121 	subcs	r3, r3, r1, lsr #2
    2d90:	21800122 	orrcs	r0, r0, r2, lsr #2
    2d94:	e15301a1 	cmp	r3, r1, lsr #3
    2d98:	204331a1 	subcs	r3, r3, r1, lsr #3
    2d9c:	218001a2 	orrcs	r0, r0, r2, lsr #3
    2da0:	e3530000 	cmp	r3, #0
    2da4:	11b02222 	lsrsne	r2, r2, #4
    2da8:	11a01221 	lsrne	r1, r1, #4
    2dac:	1affffef 	bne	2d70 <.divsi3_skip_div0_test+0x64>
    2db0:	e35c0000 	cmp	r12, #0
    2db4:	42600000 	rsbmi	r0, r0, #0
    2db8:	e12fff1e 	bx	lr
    2dbc:	e13c0000 	teq	r12, r0
    2dc0:	42600000 	rsbmi	r0, r0, #0
    2dc4:	e12fff1e 	bx	lr
    2dc8:	33a00000 	movcc	r0, #0
    2dcc:	01a00fcc 	asreq	r0, r12, #31
    2dd0:	03800001 	orreq	r0, r0, #1
    2dd4:	e12fff1e 	bx	lr
    2dd8:	e3510801 	cmp	r1, #65536	; 0x10000
    2ddc:	21a01821 	lsrcs	r1, r1, #16
    2de0:	23a02010 	movcs	r2, #16
    2de4:	33a02000 	movcc	r2, #0
    2de8:	e3510c01 	cmp	r1, #256	; 0x100
    2dec:	21a01421 	lsrcs	r1, r1, #8
    2df0:	22822008 	addcs	r2, r2, #8
    2df4:	e3510010 	cmp	r1, #16
    2df8:	21a01221 	lsrcs	r1, r1, #4
    2dfc:	22822004 	addcs	r2, r2, #4
    2e00:	e3510004 	cmp	r1, #4
    2e04:	82822003 	addhi	r2, r2, #3
    2e08:	908220a1 	addls	r2, r2, r1, lsr #1
    2e0c:	e35c0000 	cmp	r12, #0
    2e10:	e1a00233 	lsr	r0, r3, r2
    2e14:	42600000 	rsbmi	r0, r0, #0
    2e18:	e12fff1e 	bx	lr
    2e1c:	e3500000 	cmp	r0, #0
    2e20:	c3e00102 	mvngt	r0, #-2147483648	; 0x80000000
    2e24:	b3a00102 	movlt	r0, #-2147483648	; 0x80000000
    2e28:	ea000007 	b	2e4c <__aeabi_idiv0>

00002e2c <__aeabi_idivmod>:
    2e2c:	e3510000 	cmp	r1, #0
    2e30:	0afffff9 	beq	2e1c <.divsi3_skip_div0_test+0x110>
    2e34:	e92d4003 	push	{r0, r1, lr}
    2e38:	ebffffb3 	bl	2d0c <.divsi3_skip_div0_test>
    2e3c:	e8bd4006 	pop	{r1, r2, lr}
    2e40:	e0030092 	mul	r3, r2, r0
    2e44:	e0411003 	sub	r1, r1, r3
    2e48:	e12fff1e 	bx	lr

00002e4c <__aeabi_idiv0>:
    2e4c:	e12fff1e 	bx	lr

00002e50 <atexit>:
    2e50:	e1a01000 	mov	r1, r0
    2e54:	e3a00000 	mov	r0, #0
    2e58:	e92d4008 	push	{r3, lr}
    2e5c:	e1a02000 	mov	r2, r0
    2e60:	e1a03000 	mov	r3, r0
    2e64:	eb00002c 	bl	2f1c <__register_exitproc>
    2e68:	e8bd4008 	pop	{r3, lr}
    2e6c:	e12fff1e 	bx	lr

00002e70 <exit>:
    2e70:	e92d4008 	push	{r3, lr}
    2e74:	e3a01000 	mov	r1, #0
    2e78:	e1a04000 	mov	r4, r0
    2e7c:	eb000063 	bl	3010 <__call_exitprocs>
    2e80:	e59f3018 	ldr	r3, [pc, #24]	; 2ea0 <exit+0x30>
    2e84:	e5930000 	ldr	r0, [r3]
    2e88:	e590303c 	ldr	r3, [r0, #60]	; 0x3c
    2e8c:	e3530000 	cmp	r3, #0
    2e90:	11a0e00f 	movne	lr, pc
    2e94:	112fff13 	bxne	r3
    2e98:	e1a00004 	mov	r0, r4
    2e9c:	eb0000e7 	bl	3240 <_exit>
    2ea0:	00003348 	.word	0x00003348

00002ea4 <srand>:
    2ea4:	e59f3010 	ldr	r3, [pc, #16]	; 2ebc <srand+0x18>
    2ea8:	e5933000 	ldr	r3, [r3]
    2eac:	e3a02000 	mov	r2, #0
    2eb0:	e58300a8 	str	r0, [r3, #168]	; 0xa8
    2eb4:	e58320ac 	str	r2, [r3, #172]	; 0xac
    2eb8:	e12fff1e 	bx	lr
    2ebc:	000033a8 	.word	0x000033a8

00002ec0 <rand>:
    2ec0:	e52d4004 	push	{r4}		; (str r4, [sp, #-4]!)
    2ec4:	e59f3044 	ldr	r3, [pc, #68]	; 2f10 <rand+0x50>
    2ec8:	e593c000 	ldr	r12, [r3]
    2ecc:	e59f4040 	ldr	r4, [pc, #64]	; 2f14 <rand+0x54>
    2ed0:	e59c20a8 	ldr	r2, [r12, #168]	; 0xa8
    2ed4:	e0040492 	mul	r4, r2, r4
    2ed8:	e59c10ac 	ldr	r1, [r12, #172]	; 0xac
    2edc:	e59f3034 	ldr	r3, [pc, #52]	; 2f18 <rand+0x58>
    2ee0:	e0244193 	mla	r4, r3, r1, r4
    2ee4:	e0810392 	umull	r0, r1, r2, r3
    2ee8:	e3a02001 	mov	r2, #1
    2eec:	e0922000 	adds	r2, r2, r0
    2ef0:	e0841001 	add	r1, r4, r1
    2ef4:	e3a03000 	mov	r3, #0
    2ef8:	e0a33001 	adc	r3, r3, r1
    2efc:	e58c20a8 	str	r2, [r12, #168]	; 0xa8
    2f00:	e58c30ac 	str	r3, [r12, #172]	; 0xac
    2f04:	e3c30102 	bic	r0, r3, #-2147483648	; 0x80000000
    2f08:	e8bd0010 	ldmfd	sp!, {r4}
    2f0c:	e12fff1e 	bx	lr
    2f10:	000033a8 	.word	0x000033a8
    2f14:	5851f42d 	.word	0x5851f42d
    2f18:	4c957f2d 	.word	0x4c957f2d

00002f1c <__register_exitproc>:
    2f1c:	e59fc0e4 	ldr	r12, [pc, #228]	; 3008 <__register_exitproc+0xec>
    2f20:	e92d41f0 	push	{r4, r5, r6, r7, r8, lr}
    2f24:	e59c4000 	ldr	r4, [r12]
    2f28:	e594c148 	ldr	r12, [r4, #328]	; 0x148
    2f2c:	e35c0000 	cmp	r12, #0
    2f30:	0284cf53 	addeq	r12, r4, #332	; 0x14c
    2f34:	e59c5004 	ldr	r5, [r12, #4]
    2f38:	0584c148 	streq	r12, [r4, #328]	; 0x148
    2f3c:	e355001f 	cmp	r5, #31
    2f40:	e24dd010 	sub	sp, sp, #16
    2f44:	e1a06000 	mov	r6, r0
    2f48:	da000015 	ble	2fa4 <__register_exitproc+0x88>
    2f4c:	e59f00b8 	ldr	r0, [pc, #184]	; 300c <__register_exitproc+0xf0>
    2f50:	e3500000 	cmp	r0, #0
    2f54:	1a000001 	bne	2f60 <__register_exitproc+0x44>
    2f58:	e3e00000 	mvn	r0, #0
    2f5c:	ea000018 	b	2fc4 <__register_exitproc+0xa8>
    2f60:	e3a00e19 	mov	r0, #400	; 0x190
    2f64:	e58d100c 	str	r1, [sp, #12]
    2f68:	e58d2008 	str	r2, [sp, #8]
    2f6c:	e58d3004 	str	r3, [sp, #4]
    2f70:	e320f000 	nop	{0}
    2f74:	e250c000 	subs	r12, r0, #0
    2f78:	e59d100c 	ldr	r1, [sp, #12]
    2f7c:	e59d2008 	ldr	r2, [sp, #8]
    2f80:	e59d3004 	ldr	r3, [sp, #4]
    2f84:	0afffff3 	beq	2f58 <__register_exitproc+0x3c>
    2f88:	e5945148 	ldr	r5, [r4, #328]	; 0x148
    2f8c:	e3a00000 	mov	r0, #0
    2f90:	e58c0004 	str	r0, [r12, #4]
    2f94:	e58c5000 	str	r5, [r12]
    2f98:	e584c148 	str	r12, [r4, #328]	; 0x148
    2f9c:	e58c0188 	str	r0, [r12, #392]	; 0x188
    2fa0:	e58c018c 	str	r0, [r12, #396]	; 0x18c
    2fa4:	e3560000 	cmp	r6, #0
    2fa8:	e59c4004 	ldr	r4, [r12, #4]
    2fac:	1a000007 	bne	2fd0 <__register_exitproc+0xb4>
    2fb0:	e2843002 	add	r3, r4, #2
    2fb4:	e2844001 	add	r4, r4, #1
    2fb8:	e78c1103 	str	r1, [r12, r3, lsl #2]
    2fbc:	e58c4004 	str	r4, [r12, #4]
    2fc0:	e3a00000 	mov	r0, #0
    2fc4:	e28dd010 	add	sp, sp, #16
    2fc8:	e8bd41f0 	pop	{r4, r5, r6, r7, r8, lr}
    2fcc:	e12fff1e 	bx	lr
    2fd0:	e3a00001 	mov	r0, #1
    2fd4:	e1a00410 	lsl	r0, r0, r4
    2fd8:	e08c8104 	add	r8, r12, r4, lsl #2
    2fdc:	e3560002 	cmp	r6, #2
    2fe0:	e59c7188 	ldr	r7, [r12, #392]	; 0x188
    2fe4:	e5883108 	str	r3, [r8, #264]	; 0x108
    2fe8:	059c318c 	ldreq	r3, [r12, #396]	; 0x18c
    2fec:	e1877000 	orr	r7, r7, r0
    2ff0:	01830000 	orreq	r0, r3, r0
    2ff4:	e1a05008 	mov	r5, r8
    2ff8:	e5882088 	str	r2, [r8, #136]	; 0x88
    2ffc:	e58c7188 	str	r7, [r12, #392]	; 0x188
    3000:	058c018c 	streq	r0, [r12, #396]	; 0x18c
    3004:	eaffffe9 	b	2fb0 <__register_exitproc+0x94>
    3008:	00003348 	.word	0x00003348
    300c:	00000000 	.word	0x00000000

00003010 <__call_exitprocs>:
    3010:	e92d4ff0 	push	{r4, r5, r6, r7, r8, r9, r10, r11, lr}
    3014:	e59f3168 	ldr	r3, [pc, #360]	; 3184 <__call_exitprocs+0x174>
    3018:	e5933000 	ldr	r3, [r3]
    301c:	e24dd014 	sub	sp, sp, #20
    3020:	e58d3004 	str	r3, [sp, #4]
    3024:	e2833f52 	add	r3, r3, #328	; 0x148
    3028:	e58d0008 	str	r0, [sp, #8]
    302c:	e58d300c 	str	r3, [sp, #12]
    3030:	e1a07001 	mov	r7, r1
    3034:	e3a08001 	mov	r8, #1
    3038:	e59d3004 	ldr	r3, [sp, #4]
    303c:	e5936148 	ldr	r6, [r3, #328]	; 0x148
    3040:	e3560000 	cmp	r6, #0
    3044:	e59db00c 	ldr	r11, [sp, #12]
    3048:	0a000033 	beq	311c <__call_exitprocs+0x10c>
    304c:	e5965004 	ldr	r5, [r6, #4]
    3050:	e2554001 	subs	r4, r5, #1
    3054:	5286a088 	addpl	r10, r6, #136	; 0x88
    3058:	5285501f 	addpl	r5, r5, #31
    305c:	508a5105 	addpl	r5, r10, r5, lsl #2
    3060:	5a000007 	bpl	3084 <__call_exitprocs+0x74>
    3064:	ea000029 	b	3110 <__call_exitprocs+0x100>
    3068:	e5953000 	ldr	r3, [r5]
    306c:	e1530007 	cmp	r3, r7
    3070:	0a000005 	beq	308c <__call_exitprocs+0x7c>
    3074:	e2444001 	sub	r4, r4, #1
    3078:	e3740001 	cmn	r4, #1
    307c:	e2455004 	sub	r5, r5, #4
    3080:	0a000022 	beq	3110 <__call_exitprocs+0x100>
    3084:	e3570000 	cmp	r7, #0
    3088:	1afffff6 	bne	3068 <__call_exitprocs+0x58>
    308c:	e5963004 	ldr	r3, [r6, #4]
    3090:	e06a2005 	rsb	r2, r10, r5
    3094:	e2433001 	sub	r3, r3, #1
    3098:	e0862002 	add	r2, r6, r2
    309c:	e1530004 	cmp	r3, r4
    30a0:	e5123078 	ldr	r3, [r2, #-120]	; 0xffffff88
    30a4:	13a01000 	movne	r1, #0
    30a8:	05864004 	streq	r4, [r6, #4]
    30ac:	15021078 	strne	r1, [r2, #-120]	; 0xffffff88
    30b0:	e3530000 	cmp	r3, #0
    30b4:	0affffee 	beq	3074 <__call_exitprocs+0x64>
    30b8:	e1a02418 	lsl	r2, r8, r4
    30bc:	e5961188 	ldr	r1, [r6, #392]	; 0x188
    30c0:	e1120001 	tst	r2, r1
    30c4:	e5969004 	ldr	r9, [r6, #4]
    30c8:	0a000016 	beq	3128 <__call_exitprocs+0x118>
    30cc:	e596118c 	ldr	r1, [r6, #396]	; 0x18c
    30d0:	e1120001 	tst	r2, r1
    30d4:	1a000016 	bne	3134 <__call_exitprocs+0x124>
    30d8:	e59d0008 	ldr	r0, [sp, #8]
    30dc:	e5151080 	ldr	r1, [r5, #-128]	; 0xffffff80
    30e0:	e1a0e00f 	mov	lr, pc
    30e4:	e12fff13 	bx	r3
    30e8:	e5963004 	ldr	r3, [r6, #4]
    30ec:	e1530009 	cmp	r3, r9
    30f0:	1affffd0 	bne	3038 <__call_exitprocs+0x28>
    30f4:	e59b3000 	ldr	r3, [r11]
    30f8:	e1530006 	cmp	r3, r6
    30fc:	1affffcd 	bne	3038 <__call_exitprocs+0x28>
    3100:	e2444001 	sub	r4, r4, #1
    3104:	e3740001 	cmn	r4, #1
    3108:	e2455004 	sub	r5, r5, #4
    310c:	1affffdc 	bne	3084 <__call_exitprocs+0x74>
    3110:	e59f1070 	ldr	r1, [pc, #112]	; 3188 <__call_exitprocs+0x178>
    3114:	e3510000 	cmp	r1, #0
    3118:	1a000009 	bne	3144 <__call_exitprocs+0x134>
    311c:	e28dd014 	add	sp, sp, #20
    3120:	e8bd4ff0 	pop	{r4, r5, r6, r7, r8, r9, r10, r11, lr}
    3124:	e12fff1e 	bx	lr
    3128:	e1a0e00f 	mov	lr, pc
    312c:	e12fff13 	bx	r3
    3130:	eaffffec 	b	30e8 <__call_exitprocs+0xd8>
    3134:	e5150080 	ldr	r0, [r5, #-128]	; 0xffffff80
    3138:	e1a0e00f 	mov	lr, pc
    313c:	e12fff13 	bx	r3
    3140:	eaffffe8 	b	30e8 <__call_exitprocs+0xd8>
    3144:	e5963004 	ldr	r3, [r6, #4]
    3148:	e3530000 	cmp	r3, #0
    314c:	e5963000 	ldr	r3, [r6]
    3150:	1a000008 	bne	3178 <__call_exitprocs+0x168>
    3154:	e3530000 	cmp	r3, #0
    3158:	0a000006 	beq	3178 <__call_exitprocs+0x168>
    315c:	e1a00006 	mov	r0, r6
    3160:	e58b3000 	str	r3, [r11]
    3164:	e320f000 	nop	{0}
    3168:	e59b6000 	ldr	r6, [r11]
    316c:	e3560000 	cmp	r6, #0
    3170:	1affffb5 	bne	304c <__call_exitprocs+0x3c>
    3174:	eaffffe8 	b	311c <__call_exitprocs+0x10c>
    3178:	e1a0b006 	mov	r11, r6
    317c:	e1a06003 	mov	r6, r3
    3180:	eafffff9 	b	316c <__call_exitprocs+0x15c>
    3184:	00003348 	.word	0x00003348
    3188:	00000000 	.word	0x00000000

0000318c <register_fini>:
    318c:	e92d4008 	push	{r3, lr}
    3190:	e59f3010 	ldr	r3, [pc, #16]	; 31a8 <register_fini+0x1c>
    3194:	e3530000 	cmp	r3, #0
    3198:	159f000c 	ldrne	r0, [pc, #12]	; 31ac <register_fini+0x20>
    319c:	1bffff2b 	blne	2e50 <atexit>
    31a0:	e8bd4008 	pop	{r3, lr}
    31a4:	e12fff1e 	bx	lr
    31a8:	00003370 	.word	0x00003370
    31ac:	000031b0 	.word	0x000031b0

000031b0 <__libc_fini_array>:
    31b0:	e92d4038 	push	{r3, r4, r5, lr}
    31b4:	e59f5030 	ldr	r5, [pc, #48]	; 31ec <__libc_fini_array+0x3c>
    31b8:	e59f4030 	ldr	r4, [pc, #48]	; 31f0 <__libc_fini_array+0x40>
    31bc:	e0654004 	rsb	r4, r5, r4
    31c0:	e1b04144 	asrs	r4, r4, #2
    31c4:	10855104 	addne	r5, r5, r4, lsl #2
    31c8:	0a000004 	beq	31e0 <__libc_fini_array+0x30>
    31cc:	e5353004 	ldr	r3, [r5, #-4]!
    31d0:	e1a0e00f 	mov	lr, pc
    31d4:	e12fff13 	bx	r3
    31d8:	e2544001 	subs	r4, r4, #1
    31dc:	1afffffa 	bne	31cc <__libc_fini_array+0x1c>
    31e0:	eb000062 	bl	3370 <__libc_fini>
    31e4:	e8bd4038 	pop	{r3, r4, r5, lr}
    31e8:	e12fff1e 	bx	lr
    31ec:	00003388 	.word	0x00003388
    31f0:	0000338c 	.word	0x0000338c

000031f4 <__cs3_premain>:
    31f4:	e92d4008 	push	{r3, lr}
    31f8:	eb00001d 	bl	3274 <__libc_init_array>
    31fc:	e59f3030 	ldr	r3, [pc, #48]	; 3234 <__cs3_premain+0x40>
    3200:	e3530000 	cmp	r3, #0
    3204:	15930000 	ldrne	r0, [r3]
    3208:	01a00003 	moveq	r0, r3
    320c:	e59f3024 	ldr	r3, [pc, #36]	; 3238 <__cs3_premain+0x44>
    3210:	e3530000 	cmp	r3, #0
    3214:	15931000 	ldrne	r1, [r3]
    3218:	01a01003 	moveq	r1, r3
    321c:	e3a02000 	mov	r2, #0
    3220:	ebfff53d 	bl	71c <main>
    3224:	e59f3010 	ldr	r3, [pc, #16]	; 323c <__cs3_premain+0x48>
    3228:	e3530000 	cmp	r3, #0
    322c:	1bffff0f 	blne	2e70 <exit>
    3230:	eafffffe 	b	3230 <__cs3_premain+0x3c>
	...
    323c:	00002e70 	.word	0x00002e70

00003240 <_exit>:
    3240:	e52de004 	push	{lr}		; (str lr, [sp, #-4]!)
    3244:	e3a00018 	mov	r0, #24
    3248:	e59f1004 	ldr	r1, [pc, #4]	; 3254 <_exit+0x14>
    324c:	ef123456 	svc	0x00123456
    3250:	eafffffe 	b	3250 <_exit+0x10>
    3254:	00020026 	.word	0x00020026

00003258 <__cs3_isr_interrupt>:
    3258:	eafffffe 	b	3258 <__cs3_isr_interrupt>

0000325c <__cs3_isr_undef>:
    325c:	eafffffe 	b	325c <__cs3_isr_undef>

00003260 <__cs3_isr_swi>:
    3260:	eafffffe 	b	3260 <__cs3_isr_swi>

00003264 <__cs3_isr_pabort>:
    3264:	eafffffe 	b	3264 <__cs3_isr_pabort>

00003268 <__cs3_isr_dabort>:
    3268:	eafffffe 	b	3268 <__cs3_isr_dabort>

0000326c <__cs3_isr_irq>:
    326c:	eafffffe 	b	326c <__cs3_isr_irq>

00003270 <__cs3_isr_fiq>:
    3270:	eafffffe 	b	3270 <__cs3_isr_fiq>

00003274 <__libc_init_array>:
    3274:	e92d4070 	push	{r4, r5, r6, lr}
    3278:	e59f506c 	ldr	r5, [pc, #108]	; 32ec <__libc_init_array+0x78>
    327c:	e59f606c 	ldr	r6, [pc, #108]	; 32f0 <__libc_init_array+0x7c>
    3280:	e0656006 	rsb	r6, r5, r6
    3284:	e1b06146 	asrs	r6, r6, #2
    3288:	12455004 	subne	r5, r5, #4
    328c:	13a04000 	movne	r4, #0
    3290:	0a000005 	beq	32ac <__libc_init_array+0x38>
    3294:	e5b53004 	ldr	r3, [r5, #4]!
    3298:	e2844001 	add	r4, r4, #1
    329c:	e1a0e00f 	mov	lr, pc
    32a0:	e12fff13 	bx	r3
    32a4:	e1560004 	cmp	r6, r4
    32a8:	1afffff9 	bne	3294 <__libc_init_array+0x20>
    32ac:	e59f5040 	ldr	r5, [pc, #64]	; 32f4 <__libc_init_array+0x80>
    32b0:	e59f6040 	ldr	r6, [pc, #64]	; 32f8 <__libc_init_array+0x84>
    32b4:	e0656006 	rsb	r6, r5, r6
    32b8:	eb000024 	bl	3350 <_init>
    32bc:	e1b06146 	asrs	r6, r6, #2
    32c0:	12455004 	subne	r5, r5, #4
    32c4:	13a04000 	movne	r4, #0
    32c8:	0a000005 	beq	32e4 <__libc_init_array+0x70>
    32cc:	e5b53004 	ldr	r3, [r5, #4]!
    32d0:	e2844001 	add	r4, r4, #1
    32d4:	e1a0e00f 	mov	lr, pc
    32d8:	e12fff13 	bx	r3
    32dc:	e1560004 	cmp	r6, r4
    32e0:	1afffff9 	bne	32cc <__libc_init_array+0x58>
    32e4:	e8bd4070 	pop	{r4, r5, r6, lr}
    32e8:	e12fff1e 	bx	lr
    32ec:	00003368 	.word	0x00003368
    32f0:	00003368 	.word	0x00003368
    32f4:	00003368 	.word	0x00003368
    32f8:	00003370 	.word	0x00003370

Disassembly of section .rodata:

00003300 <SIMULATOR_ADJUSTMENT>:
    3300:	00000008                                ....

00003304 <BALL_COLOUR>:
    3304:	411effff                                         ..

00003306 <PADDLE_COLOUR>:
    3306:	8430411e                                         .A

00003308 <WALLS_COLOUR>:
    3308:	9e848430                                         0.

0000330a <BOX_BORDER_COLOUR>:
    330a:	9ac49e84                                         ..

0000330c <BOX_COLOUR>:
    330c:	00009ac4                                ....

00003310 <BALL_SIZE>:
    3310:	00000006                                ....

00003314 <NUM_ROW_OF_BOX>:
    3314:	00000004                                ....

00003318 <NUM_BOX_PER_ROW>:
    3318:	00000008                                ....

0000331c <TITLE_HEIGHT>:
    331c:	0000000c                                ....

00003320 <BOX_Y>:
    3320:	0000000f                                ....

00003324 <BOX_X>:
    3324:	00000023                                #...

00003328 <PADDING>:
    3328:	00000001                                ....

0000332c <PADDLE_POSITION_Y>:
    332c:	000000d2                                ....

00003330 <PADDLE_Y>:
    3330:	0000000a                                ....

00003334 <PADDLE_X>:
    3334:	00000040                                @...

00003338 <MAX_Y>:
    3338:	000000ea                                ....

0000333c <MIN_Y>:
    333c:	00000014                                ....

00003340 <MAX_X>:
    3340:	00000130                                0...

00003344 <MIN_X>:
    3344:	0000000f                                ....

00003348 <_global_impure_ptr>:
    3348:	000033b0 00000043                       .3..C...

00003350 <_init>:
    3350:	e1a0c00d 	mov	r12, sp
    3354:	e92ddff8 	push	{r3, r4, r5, r6, r7, r8, r9, r10, r11, r12, lr, pc}
    3358:	e24cb004 	sub	r11, r12, #4
    335c:	e24bd028 	sub	sp, r11, #40	; 0x28
    3360:	e89d6ff0 	ldm	sp, {r4, r5, r6, r7, r8, r9, r10, r11, sp, lr}
    3364:	e12fff1e 	bx	lr

00003368 <__init_array_start>:
    3368:	0000318c 	.word	0x0000318c

0000336c <__frame_dummy_init_array_entry>:
    336c:	00000208                                ....

00003370 <__libc_fini>:
    3370:	e1a0c00d 	mov	r12, sp
    3374:	e92ddff8 	push	{r3, r4, r5, r6, r7, r8, r9, r10, r11, r12, lr, pc}
    3378:	e24cb004 	sub	r11, r12, #4
    337c:	e24bd028 	sub	sp, r11, #40	; 0x28
    3380:	e89d6ff0 	ldm	sp, {r4, r5, r6, r7, r8, r9, r10, r11, sp, lr}
    3384:	e12fff1e 	bx	lr

00003388 <__fini_array_start>:
    3388:	000001c4 	.word	0x000001c4

0000338c <__cs3_regions>:
	...
    3398:	000037e0 	.word	0x000037e0
    339c:	0004b020 	.word	0x0004b020
